Archive member included to satisfy reference by file (symbol)

NuttX/nuttx/arch/arm/src/libarch.a(stm32_start.o)
                              (__start)
NuttX/nuttx/arch/arm/src/libarch.a(stm32_rcc.o)
                              NuttX/nuttx/arch/arm/src/libarch.a(stm32_start.o) (stm32_clockconfig)
NuttX/nuttx/arch/arm/src/libarch.a(stm32_gpio.o)
                              NuttX/nuttx/arch/arm/src/libarch.a(stm32_start.o) (stm32_gpioinit)
NuttX/nuttx/arch/arm/src/libarch.a(stm32_lowputc.o)
                              NuttX/nuttx/arch/arm/src/libarch.a(stm32_start.o) (stm32_lowsetup)
NuttX/nuttx/arch/arm/src/libarch.a(stm32_serial.o)
                              NuttX/nuttx/arch/arm/src/libarch.a(stm32_start.o) (up_earlyserialinit)
NuttX/nuttx/arch/arm/src/libarch.a(up_modifyreg32.o)
                              NuttX/nuttx/arch/arm/src/libarch.a(stm32_serial.o) (modifyreg32)
NuttX/nuttx/arch/arm/src/libarch.a(up_vectors.o)
                              (_vectors)
NuttX/nuttx/arch/arm/src/libarch.a(up_exception.o)
                              NuttX/nuttx/arch/arm/src/libarch.a(up_vectors.o) (exception_common)
NuttX/nuttx/arch/arm/src/libarch.a(stm32_irq.o)
                              NuttX/nuttx/arch/arm/src/libarch.a(stm32_serial.o) (up_disable_irq)
NuttX/nuttx/arch/arm/src/libarch.a(stm32_dma.o)
                              NuttX/nuttx/arch/arm/src/libarch.a(stm32_serial.o) (stm32_dmachannel)
NuttX/nuttx/arch/arm/src/libarch.a(up_assert.o)
                              NuttX/nuttx/arch/arm/src/libarch.a(stm32_dma.o) (up_assert)
NuttX/nuttx/arch/arm/src/libarch.a(up_doirq.o)
                              NuttX/nuttx/arch/arm/src/libarch.a(up_exception.o) (up_doirq)
NuttX/nuttx/arch/arm/src/libarch.a(up_hardfault.o)
                              NuttX/nuttx/arch/arm/src/libarch.a(stm32_irq.o) (up_hardfault)
NuttX/nuttx/arch/arm/src/libarch.a(up_svcall.o)
                              NuttX/nuttx/arch/arm/src/libarch.a(stm32_irq.o) (up_svcall)
NuttX/nuttx/arch/arm/src/libarch.a(up_checkstack.o)
                              NuttX/nuttx/arch/arm/src/libarch.a(up_assert.o) (up_check_tcbstack)
NuttX/nuttx/arch/arm/src/libarch.a(stm32_vectors.o)
                              NuttX/nuttx/arch/arm/src/libarch.a(up_assert.o) (g_idle_topstack)
NuttX/nuttx/libc/libc.a(arch_memcpy.o)
                              NuttX/nuttx/arch/arm/src/libarch.a(up_svcall.o) (memcpy)
NuttX/nuttx/libc/libc.a(sem_init.o)
                              NuttX/nuttx/arch/arm/src/libarch.a(stm32_dma.o) (sem_init)
NuttX/nuttx/libc/libc.a(lib_abort.o)
                              (abort)
NuttX/nuttx/libc/libc.a(lib_strcpy.o)
                              NuttX/nuttx/arch/arm/src/libarch.a(stm32_serial.o) (strcpy)
NuttX/nuttx/libc/libc.a(lib_syslog.o)
                              NuttX/nuttx/arch/arm/src/libarch.a(up_assert.o) (syslog)
NuttX/nuttx/libc/libc.a(lib_setlogmask.o)
                              NuttX/nuttx/libc/libc.a(lib_syslog.o) (g_syslog_mask)
NuttX/nuttx/libc/libc.a(lib_cfgetspeed.o)
                              NuttX/nuttx/arch/arm/src/libarch.a(stm32_serial.o) (cfgetspeed)
NuttX/nuttx/libc/libc.a(lib_cfsetspeed.o)
                              NuttX/nuttx/arch/arm/src/libarch.a(stm32_serial.o) (cfsetspeed)
NuttX/nuttx/drivers/libdrivers.a(serial.o)
                              NuttX/nuttx/arch/arm/src/libarch.a(stm32_serial.o) (uart_register)
NuttX/nuttx/drivers/libdrivers.a(serial_io.o)
                              NuttX/nuttx/arch/arm/src/libarch.a(stm32_serial.o) (uart_xmitchars)
NuttX/nuttx/drivers/libdrivers.a(vsyslog.o)
                              NuttX/nuttx/libc/libc.a(lib_syslog.o) (_vsyslog)
NuttX/nuttx/drivers/libdrivers.a(syslog_stream.o)
                              NuttX/nuttx/drivers/libdrivers.a(vsyslog.o) (syslogstream_create)
NuttX/nuttx/drivers/libdrivers.a(syslog_emergstream.o)
                              NuttX/nuttx/drivers/libdrivers.a(vsyslog.o) (emergstream)
NuttX/nuttx/drivers/libdrivers.a(syslog_putc.o)
                              NuttX/nuttx/drivers/libdrivers.a(syslog_stream.o) (syslog_putc)
NuttX/nuttx/drivers/libdrivers.a(syslog_force.o)
                              NuttX/nuttx/drivers/libdrivers.a(syslog_emergstream.o) (syslog_force)
NuttX/nuttx/drivers/libdrivers.a(syslog_channel.o)
                              NuttX/nuttx/drivers/libdrivers.a(syslog_putc.o) (g_syslog_channel)
NuttX/nuttx/fs/libfs.a(fs_registerdriver.o)
                              NuttX/nuttx/drivers/libdrivers.a(serial.o) (register_driver)
NuttX/nuttx/fs/libfs.a(fs_inode.o)
                              NuttX/nuttx/fs/libfs.a(fs_registerdriver.o) (inode_semtake)
NuttX/nuttx/fs/libfs.a(fs_inodereserve.o)
                              NuttX/nuttx/fs/libfs.a(fs_registerdriver.o) (inode_reserve)
NuttX/nuttx/fs/libfs.a(fs_inodesearch.o)
                              NuttX/nuttx/fs/libfs.a(fs_inodereserve.o) (inode_nextname)
NuttX/nuttx/mm/libmm.a(umm_zalloc.o)
                              NuttX/nuttx/fs/libfs.a(fs_inodereserve.o) (zalloc)
NuttX/nuttx/mm/libmm.a(umm_globals.o)
                              NuttX/nuttx/mm/libmm.a(umm_zalloc.o) (g_mmheap)
NuttX/nuttx/mm/libmm.a(mm_zalloc.o)
                              NuttX/nuttx/mm/libmm.a(umm_zalloc.o) (mm_zalloc)
NuttX/nuttx/mm/libmm.a(mm_malloc.o)
                              NuttX/nuttx/mm/libmm.a(mm_zalloc.o) (mm_malloc)
NuttX/nuttx/mm/libmm.a(mm_sem.o)
                              NuttX/nuttx/mm/libmm.a(mm_malloc.o) (mm_takesemaphore)
NuttX/nuttx/mm/libmm.a(mm_addfreechunk.o)
                              NuttX/nuttx/mm/libmm.a(mm_malloc.o) (mm_addfreechunk)
NuttX/nuttx/mm/libmm.a(mm_size2ndx.o)
                              NuttX/nuttx/mm/libmm.a(mm_malloc.o) (mm_size2ndx)
NuttX/nuttx/sched/libsched.a(errno_getptr.o)
                              NuttX/nuttx/arch/arm/src/libarch.a(stm32_dma.o) (get_errno_ptr)
NuttX/nuttx/sched/libsched.a(os_start.o)
                              NuttX/nuttx/arch/arm/src/libarch.a(stm32_start.o) (os_start)
NuttX/nuttx/sched/libsched.a(os_bringup.o)
                              NuttX/nuttx/sched/libsched.a(os_start.o) (os_bringup)
NuttX/nuttx/sched/libsched.a(irq_attach.o)
                              NuttX/nuttx/arch/arm/src/libarch.a(stm32_serial.o) (irq_attach)
NuttX/nuttx/sched/libsched.a(irq_dispatch.o)
                              NuttX/nuttx/arch/arm/src/libarch.a(up_doirq.o) (irq_dispatch)
NuttX/nuttx/sched/libsched.a(irq_unexpectedisr.o)
                              NuttX/nuttx/sched/libsched.a(irq_attach.o) (irq_unexpected_isr)
NuttX/nuttx/sched/libsched.a(sched_garbage.o)
                              NuttX/nuttx/sched/libsched.a(os_start.o) (sched_garbage_collection)
NuttX/nuttx/sched/libsched.a(sched_foreach.o)
                              NuttX/nuttx/arch/arm/src/libarch.a(up_assert.o) (sched_foreach)
NuttX/nuttx/sched/libsched.a(sched_idletask.o)
                              NuttX/nuttx/drivers/libdrivers.a(serial.o) (sched_idletask)
NuttX/nuttx/sched/libsched.a(sem_wait.o)
                              NuttX/nuttx/arch/arm/src/libarch.a(stm32_dma.o) (sem_wait)
NuttX/nuttx/sched/libsched.a(sem_trywait.o)
                              NuttX/nuttx/mm/libmm.a(mm_sem.o) (sem_trywait)
NuttX/nuttx/sched/libsched.a(sem_post.o)
                              NuttX/nuttx/arch/arm/src/libarch.a(stm32_dma.o) (sem_post)
NuttX/nuttx/sched/libsched.a(sem_reset.o)
                              NuttX/nuttx/drivers/libdrivers.a(serial.o) (sem_reset)
NuttX/nuttx/sched/libsched.a(task_create.o)
                              NuttX/nuttx/sched/libsched.a(os_bringup.o) (task_create)
NuttX/nuttx/sched/libsched.a(task_setup.o)
                              NuttX/nuttx/sched/libsched.a(task_create.o) (task_schedsetup)
NuttX/nuttx/sched/libsched.a(task_activate.o)
                              NuttX/nuttx/sched/libsched.a(task_create.o) (task_activate)
NuttX/nuttx/sched/libsched.a(task_start.o)
                              NuttX/nuttx/sched/libsched.a(task_create.o) (task_start)
NuttX/nuttx/sched/libsched.a(task_getpid.o)
                              NuttX/nuttx/fs/libfs.a(fs_inode.o) (getpid)
NuttX/nuttx/sched/libsched.a(exit.o)
                              NuttX/nuttx/arch/arm/src/libarch.a(up_assert.o) (exit)
NuttX/nuttx/sched/libsched.a(group_create.o)
                              NuttX/nuttx/sched/libsched.a(os_start.o) (group_allocate)
NuttX/nuttx/sched/libsched.a(group_setupidlefiles.o)
                              NuttX/nuttx/sched/libsched.a(os_start.o) (group_setupidlefiles)
NuttX/nuttx/sched/libsched.a(group_setuptaskfiles.o)
                              NuttX/nuttx/sched/libsched.a(task_create.o) (group_setuptaskfiles)
NuttX/nuttx/sched/libsched.a(irq_initialize.o)
                              NuttX/nuttx/sched/libsched.a(irq_attach.o) (g_irqvector)
NuttX/nuttx/sched/libsched.a(sched_releasetcb.o)
                              NuttX/nuttx/sched/libsched.a(task_create.o) (sched_releasetcb)
NuttX/nuttx/sched/libsched.a(sched_lock.o)
                              NuttX/nuttx/sched/libsched.a(sem_reset.o) (sched_lock)
NuttX/nuttx/sched/libsched.a(sched_unlock.o)
                              NuttX/nuttx/sched/libsched.a(sem_reset.o) (sched_unlock)
NuttX/nuttx/sched/libsched.a(task_exithook.o)
                              NuttX/nuttx/sched/libsched.a(exit.o) (task_exithook)
NuttX/nuttx/sched/libsched.a(task_recover.o)
                              NuttX/nuttx/sched/libsched.a(task_exithook.o) (task_recover)
NuttX/nuttx/sched/libsched.a(wd_recover.o)
                              NuttX/nuttx/sched/libsched.a(task_recover.o) (wd_recover)
NuttX/nuttx/sched/libsched.a(group_leave.o)
                              NuttX/nuttx/sched/libsched.a(sched_releasetcb.o) (group_leave)
NuttX/nuttx/sched/libsched.a(sched_free.o)
                              NuttX/nuttx/sched/libsched.a(sched_releasetcb.o) (sched_ufree)
NuttX/nuttx/sched/libsched.a(sem_recover.o)
                              NuttX/nuttx/sched/libsched.a(task_recover.o) (sem_recover)
NuttX/nuttx/sched/libsched.a(wd_cancel.o)
                              NuttX/nuttx/sched/libsched.a(wd_recover.o) (wd_cancel)
NuttX/nuttx/sched/libsched.a(wd_delete.o)
                              NuttX/nuttx/sched/libsched.a(wd_recover.o) (wd_delete)
NuttX/nuttx/sched/libsched.a(wd_initialize.o)
                              NuttX/nuttx/sched/libsched.a(wd_delete.o) (g_wdnfree)
src/drivers/boards/px4io-v2/libdrivers__boards__px4io-v2.a(px4io_init.c.obj)
                              NuttX/nuttx/arch/arm/src/libarch.a(stm32_start.o) (stm32_boardinitialize)
src/modules/px4iofirmware/libmodules__px4iofirmware.a(px4io.c.obj)
                              NuttX/nuttx/sched/libsched.a(os_bringup.o) (user_start)
src/modules/px4iofirmware/libmodules__px4iofirmware.a(registers.c.obj)
                              src/modules/px4iofirmware/libmodules__px4iofirmware.a(px4io.c.obj) (r_page_setup)
src/modules/px4iofirmware/libmodules__px4iofirmware.a(safety.c.obj)
                              src/modules/px4iofirmware/libmodules__px4iofirmware.a(px4io.c.obj) (safety_init)
src/modules/px4iofirmware/libmodules__px4iofirmware.a(serial.c.obj)
                              src/modules/px4iofirmware/libmodules__px4iofirmware.a(px4io.c.obj) (interface_init)
src/modules/px4iofirmware/libmodules__px4iofirmware.a(perf_counter.c.obj)
                              src/modules/px4iofirmware/libmodules__px4iofirmware.a(px4io.c.obj) (perf_count)
src/modules/px4iofirmware/libmodules__px4iofirmware.a(pwm_limit.c.obj)
                              src/modules/px4iofirmware/libmodules__px4iofirmware.a(px4io.c.obj) (pwm_limit_init)
src/modules/px4iofirmware/libmodules__px4iofirmware.a(adc.c.obj)
                              src/modules/px4iofirmware/libmodules__px4iofirmware.a(px4io.c.obj) (adc_init)
src/modules/px4iofirmware/libmodules__px4iofirmware.a(controls.c.obj)
                              src/modules/px4iofirmware/libmodules__px4iofirmware.a(px4io.c.obj) (controls_init)
src/modules/px4iofirmware/libmodules__px4iofirmware.a(mixer.cpp.obj)
                              src/modules/px4iofirmware/libmodules__px4iofirmware.a(registers.c.obj) (mixer_handle_text)
src/modules/systemlib/mixer/libmodules__systemlib__mixer.a(mixer_group.cpp.obj)
                              src/modules/px4iofirmware/libmodules__px4iofirmware.a(mixer.cpp.obj) (MixerGroup::mix(float*, unsigned int))
src/modules/systemlib/mixer/libmodules__systemlib__mixer.a(mixer_helicopter.cpp.obj)
                              src/modules/systemlib/mixer/libmodules__systemlib__mixer.a(mixer_group.cpp.obj) (HelicopterMixer::from_text(int (*)(unsigned int, unsigned char, unsigned char, float&), unsigned int, char const*, unsigned int&))
src/modules/systemlib/mixer/libmodules__systemlib__mixer.a(mixer_multirotor.cpp.obj)
                              src/modules/systemlib/mixer/libmodules__systemlib__mixer.a(mixer_group.cpp.obj) (MultirotorMixer::from_text(int (*)(unsigned int, unsigned char, unsigned char, float&), unsigned int, char const*, unsigned int&))
src/modules/systemlib/mixer/libmodules__systemlib__mixer.a(mixer_simple.cpp.obj)
                              src/modules/systemlib/mixer/libmodules__systemlib__mixer.a(mixer_group.cpp.obj) (SimpleMixer::from_text(int (*)(unsigned int, unsigned char, unsigned char, float&), unsigned int, char const*, unsigned int&))
src/modules/systemlib/mixer/libmodules__systemlib__mixer.a(mixer.cpp.obj)
                              src/modules/systemlib/mixer/libmodules__systemlib__mixer.a(mixer_group.cpp.obj) (Mixer::Mixer(int (*)(unsigned int, unsigned char, unsigned char, float&), unsigned int))
NuttX/apps/libapps.a(gnu_cxxinitialize.o)
                              src/modules/px4iofirmware/libmodules__px4iofirmware.a(px4io.c.obj) (up_cxxinitialize)
NuttX/nuttx/arch/arm/src/libarch.a(stm32_allocateheap.o)
                              NuttX/nuttx/sched/libsched.a(os_start.o) (up_allocate_heap)
NuttX/nuttx/arch/arm/src/libarch.a(stm32_idle.o)
                              NuttX/nuttx/sched/libsched.a(os_start.o) (up_idle)
NuttX/nuttx/arch/arm/src/libarch.a(up_blocktask.o)
                              NuttX/nuttx/sched/libsched.a(sem_wait.o) (up_block_task)
NuttX/nuttx/arch/arm/src/libarch.a(up_copyfullstate.o)
                              NuttX/nuttx/arch/arm/src/libarch.a(up_blocktask.o) (up_copyfullstate)
NuttX/nuttx/arch/arm/src/libarch.a(up_createstack.o)
                              NuttX/nuttx/sched/libsched.a(task_create.o) (up_create_stack)
NuttX/nuttx/arch/arm/src/libarch.a(up_mdelay.o)
                              NuttX/nuttx/drivers/libdrivers.a(serial.o) (up_mdelay)
NuttX/nuttx/arch/arm/src/libarch.a(up_udelay.o)
                              src/modules/px4iofirmware/libmodules__px4iofirmware.a(px4io.c.obj) (up_udelay)
NuttX/nuttx/arch/arm/src/libarch.a(up_exit.o)
                              NuttX/nuttx/sched/libsched.a(exit.o) (_exit)
NuttX/nuttx/arch/arm/src/libarch.a(up_initialize.o)
                              NuttX/nuttx/sched/libsched.a(os_start.o) (up_initialize)
NuttX/nuttx/arch/arm/src/libarch.a(up_initialstate.o)
                              NuttX/nuttx/sched/libsched.a(os_start.o) (up_initial_state)
NuttX/nuttx/arch/arm/src/libarch.a(up_interruptcontext.o)
                              NuttX/nuttx/drivers/libdrivers.a(serial.o) (up_interrupt_context)
NuttX/nuttx/arch/arm/src/libarch.a(up_releasepending.o)
                              NuttX/nuttx/sched/libsched.a(sched_unlock.o) (up_release_pending)
NuttX/nuttx/arch/arm/src/libarch.a(up_releasestack.o)
                              NuttX/nuttx/sched/libsched.a(sched_releasetcb.o) (up_release_stack)
NuttX/nuttx/arch/arm/src/libarch.a(up_stackframe.o)
                              NuttX/nuttx/sched/libsched.a(task_setup.o) (up_stack_frame)
NuttX/nuttx/arch/arm/src/libarch.a(up_systemreset.o)
                              src/modules/px4iofirmware/libmodules__px4iofirmware.a(px4io.c.obj) (up_systemreset)
NuttX/nuttx/arch/arm/src/libarch.a(up_unblocktask.o)
                              NuttX/nuttx/sched/libsched.a(sem_post.o) (up_unblock_task)
NuttX/nuttx/arch/arm/src/libarch.a(up_fullcontextrestore.o)
                              NuttX/nuttx/arch/arm/src/libarch.a(up_exit.o) (up_fullcontextrestore)
NuttX/nuttx/arch/arm/src/libarch.a(up_switchcontext.o)
                              NuttX/nuttx/arch/arm/src/libarch.a(up_blocktask.o) (up_switchcontext)
NuttX/nuttx/arch/arm/src/libarch.a(stm32_timerisr.o)
                              NuttX/nuttx/arch/arm/src/libarch.a(up_initialize.o) (arm_timer_initialize)
NuttX/nuttx/libc/libc.a(lib_crc32.o)
                              src/modules/px4iofirmware/libmodules__px4iofirmware.a(px4io.c.obj) (crc32part)
NuttX/nuttx/libc/libc.a(sq_addlast.o)
                              NuttX/nuttx/sched/libsched.a(sched_free.o) (sq_addlast)
NuttX/nuttx/libc/libc.a(sq_addfirst.o)
                              src/modules/px4iofirmware/libmodules__px4iofirmware.a(perf_counter.c.obj) (sq_addfirst)
NuttX/nuttx/libc/libc.a(sq_rem.o)
                              src/modules/px4iofirmware/libmodules__px4iofirmware.a(perf_counter.c.obj) (sq_rem)
NuttX/nuttx/libc/libc.a(sq_remfirst.o)
                              NuttX/nuttx/sched/libsched.a(sched_garbage.o) (sq_remfirst)
NuttX/nuttx/libc/libc.a(sq_remafter.o)
                              NuttX/nuttx/sched/libsched.a(wd_cancel.o) (sq_remafter)
NuttX/nuttx/libc/libc.a(dq_addfirst.o)
                              NuttX/nuttx/sched/libsched.a(os_start.o) (dq_addfirst)
NuttX/nuttx/libc/libc.a(dq_rem.o)
                              NuttX/nuttx/sched/libsched.a(task_create.o) (dq_rem)
NuttX/nuttx/libc/libc.a(sem_setprotocol.o)
                              NuttX/nuttx/drivers/libdrivers.a(serial.o) (sem_setprotocol)
NuttX/nuttx/libc/libc.a(lib_printf.o)
                              src/modules/px4iofirmware/libmodules__px4iofirmware.a(perf_counter.c.obj) (printf)
NuttX/nuttx/libc/libc.a(lib_snprintf.o)
                              src/modules/px4iofirmware/libmodules__px4iofirmware.a(perf_counter.c.obj) (snprintf)
NuttX/nuttx/libc/libc.a(lib_vsnprintf.o)
                              src/modules/px4iofirmware/libmodules__px4iofirmware.a(px4io.c.obj) (vsnprintf)
NuttX/nuttx/libc/libc.a(lib_libvsprintf.o)
                              NuttX/nuttx/drivers/libdrivers.a(vsyslog.o) (lib_vsprintf)
NuttX/nuttx/libc/libc.a(lib_dprintf.o)
                              src/modules/px4iofirmware/libmodules__px4iofirmware.a(perf_counter.c.obj) (dprintf)
NuttX/nuttx/libc/libc.a(lib_vdprintf.o)
                              NuttX/nuttx/libc/libc.a(lib_dprintf.o) (vdprintf)
NuttX/nuttx/libc/libc.a(lib_memoutstream.o)
                              NuttX/nuttx/libc/libc.a(lib_snprintf.o) (lib_memoutstream)
NuttX/nuttx/libc/libc.a(lib_nulloutstream.o)
                              NuttX/nuttx/libc/libc.a(lib_snprintf.o) (lib_nulloutstream)
NuttX/nuttx/libc/libc.a(lib_sscanf.o)
                              src/modules/systemlib/mixer/libmodules__systemlib__mixer.a(mixer_helicopter.cpp.obj) (sscanf)
NuttX/nuttx/libc/libc.a(lib_rawsostream.o)
                              NuttX/nuttx/libc/libc.a(lib_vdprintf.o) (lib_rawoutstream)
NuttX/nuttx/libc/libc.a(lib_libnoflush.o)
                              NuttX/nuttx/drivers/libdrivers.a(syslog_stream.o) (lib_noflush)
NuttX/nuttx/libc/libc.a(lib_strtol.o)
                              NuttX/nuttx/libc/libc.a(lib_sscanf.o) (strtol)
NuttX/nuttx/libc/libc.a(lib_strtoul.o)
                              NuttX/nuttx/libc/libc.a(lib_sscanf.o) (strtoul)
NuttX/nuttx/libc/libc.a(lib_checkbase.o)
                              NuttX/nuttx/libc/libc.a(lib_strtoul.o) (lib_checkbase)
NuttX/nuttx/libc/libc.a(lib_isbasedigit.o)
                              NuttX/nuttx/libc/libc.a(lib_strtoul.o) (lib_isbasedigit)
NuttX/nuttx/libc/libc.a(lib_memset.o)
                              NuttX/nuttx/mm/libmm.a(mm_zalloc.o) (memset)
NuttX/nuttx/libc/libc.a(lib_memchr.o)
                              src/modules/systemlib/mixer/libmodules__systemlib__mixer.a(mixer.cpp.obj) (memchr)
NuttX/nuttx/libc/libc.a(lib_memmove.o)
                              src/modules/px4iofirmware/libmodules__px4iofirmware.a(mixer.cpp.obj) (memmove)
NuttX/nuttx/libc/libc.a(lib_skipspace.o)
                              NuttX/nuttx/libc/libc.a(lib_strtol.o) (lib_skipspace)
NuttX/nuttx/libc/libc.a(lib_strchr.o)
                              NuttX/nuttx/libc/libc.a(lib_libvsprintf.o) (strchr)
NuttX/nuttx/libc/libc.a(lib_strcmp.o)
                              src/modules/px4iofirmware/libmodules__px4iofirmware.a(perf_counter.c.obj) (strcmp)
NuttX/nuttx/libc/libc.a(lib_strcspn.o)
                              NuttX/nuttx/libc/libc.a(lib_sscanf.o) (strcspn)
NuttX/nuttx/libc/libc.a(lib_strlen.o)
                              NuttX/nuttx/sched/libsched.a(task_setup.o) (strlen)
NuttX/nuttx/libc/libc.a(lib_strnlen.o)
                              NuttX/nuttx/libc/libc.a(lib_libvsprintf.o) (strnlen)
NuttX/nuttx/libc/libc.a(lib_strncpy.o)
                              NuttX/nuttx/sched/libsched.a(task_setup.o) (strncpy)
NuttX/nuttx/libxx/libcxx.a(libxx_cxapurevirtual.o)
                              src/modules/systemlib/mixer/libmodules__systemlib__mixer.a(mixer.cpp.obj) (__cxa_pure_virtual)
NuttX/nuttx/libxx/libcxx.a(libxx_eabi_atexit.o)
                              src/modules/px4iofirmware/libmodules__px4iofirmware.a(mixer.cpp.obj) (__aeabi_atexit)
NuttX/nuttx/libxx/libcxx.a(libxx_cxa_atexit.o)
                              NuttX/nuttx/libxx/libcxx.a(libxx_eabi_atexit.o) (__cxa_atexit)
NuttX/nuttx/libxx/libcxx.a(libxx_delete.o)
                              src/modules/systemlib/mixer/libmodules__systemlib__mixer.a(mixer_group.cpp.obj) (operator delete(void*))
NuttX/nuttx/libxx/libcxx.a(libxx_deletea.o)
                              src/modules/systemlib/mixer/libmodules__systemlib__mixer.a(mixer_multirotor.cpp.obj) (operator delete[](void*))
NuttX/nuttx/libxx/libcxx.a(libxx_new.o)
                              src/modules/systemlib/mixer/libmodules__systemlib__mixer.a(mixer_helicopter.cpp.obj) (operator new(unsigned int))
NuttX/nuttx/libxx/libcxx.a(libxx_newa.o)
                              src/modules/systemlib/mixer/libmodules__systemlib__mixer.a(mixer_multirotor.cpp.obj) (operator new[](unsigned int))
NuttX/nuttx/drivers/libdrivers.a(syslog_initialize.o)
                              NuttX/nuttx/sched/libsched.a(os_start.o) (syslog_initialize)
NuttX/nuttx/drivers/libdrivers.a(syslog_consolechannel.o)
                              NuttX/nuttx/drivers/libdrivers.a(syslog_initialize.o) (syslog_console_channel)
NuttX/nuttx/drivers/libdrivers.a(syslog_device.o)
                              NuttX/nuttx/drivers/libdrivers.a(syslog_consolechannel.o) (syslog_dev_initialize)
NuttX/nuttx/fs/libfs.a(fs_initialize.o)
                              NuttX/nuttx/sched/libsched.a(os_start.o) (fs_initialize)
NuttX/nuttx/fs/libfs.a(fs_files.o)
                              NuttX/nuttx/sched/libsched.a(group_setupidlefiles.o) (files_initlist)
NuttX/nuttx/fs/libfs.a(fs_inodeaddref.o)
                              NuttX/nuttx/fs/libfs.a(fs_files.o) (inode_addref)
NuttX/nuttx/fs/libfs.a(fs_inoderelease.o)
                              NuttX/nuttx/fs/libfs.a(fs_files.o) (inode_release)
NuttX/nuttx/fs/libfs.a(fs_filedetach.o)
                              NuttX/nuttx/drivers/libdrivers.a(syslog_device.o) (file_detach)
NuttX/nuttx/fs/libfs.a(fs_close.o)
                              NuttX/nuttx/sched/libsched.a(group_setupidlefiles.o) (close)
NuttX/nuttx/fs/libfs.a(fs_dupfd2.o)
                              NuttX/nuttx/sched/libsched.a(group_setupidlefiles.o) (dup2)
NuttX/nuttx/fs/libfs.a(fs_getfilep.o)
                              NuttX/nuttx/fs/libfs.a(fs_dupfd2.o) (fs_getfilep)
NuttX/nuttx/fs/libfs.a(fs_open.o)
                              NuttX/nuttx/sched/libsched.a(group_setupidlefiles.o) (open)
NuttX/nuttx/fs/libfs.a(fs_write.o)
                              NuttX/nuttx/drivers/libdrivers.a(syslog_device.o) (file_write)
NuttX/nuttx/fs/libfs.a(fs_inodefind.o)
                              NuttX/nuttx/fs/libfs.a(fs_open.o) (inode_find)
NuttX/nuttx/fs/libfs.a(fs_inodefree.o)
                              NuttX/nuttx/fs/libfs.a(fs_inoderelease.o) (inode_free)
NuttX/nuttx/mm/libmm.a(umm_initialize.o)
                              NuttX/nuttx/sched/libsched.a(os_start.o) (umm_initialize)
NuttX/nuttx/mm/libmm.a(umm_sem.o)
                              NuttX/nuttx/sched/libsched.a(os_start.o) (umm_trysemaphore)
NuttX/nuttx/mm/libmm.a(umm_calloc.o)
                              src/modules/px4iofirmware/libmodules__px4iofirmware.a(perf_counter.c.obj) (calloc)
NuttX/nuttx/mm/libmm.a(umm_free.o)
                              NuttX/nuttx/sched/libsched.a(sched_garbage.o) (free)
NuttX/nuttx/mm/libmm.a(umm_mallinfo.o)
                              src/modules/px4iofirmware/libmodules__px4iofirmware.a(px4io.c.obj) (mallinfo)
NuttX/nuttx/mm/libmm.a(umm_malloc.o)
                              src/modules/systemlib/mixer/libmodules__systemlib__mixer.a(mixer_simple.cpp.obj) (malloc)
NuttX/nuttx/mm/libmm.a(mm_initialize.o)
                              NuttX/nuttx/mm/libmm.a(umm_initialize.o) (mm_initialize)
NuttX/nuttx/mm/libmm.a(mm_calloc.o)
                              NuttX/nuttx/mm/libmm.a(umm_calloc.o) (mm_calloc)
NuttX/nuttx/mm/libmm.a(mm_free.o)
                              NuttX/nuttx/mm/libmm.a(umm_free.o) (mm_free)
NuttX/nuttx/mm/libmm.a(mm_mallinfo.o)
                              NuttX/nuttx/mm/libmm.a(umm_mallinfo.o) (mm_mallinfo)
NuttX/nuttx/sched/libsched.a(sched_getfiles.o)
                              NuttX/nuttx/fs/libfs.a(fs_files.o) (sched_getfiles)
NuttX/nuttx/sched/libsched.a(sched_addreadytorun.o)
                              NuttX/nuttx/arch/arm/src/libarch.a(up_unblocktask.o) (sched_addreadytorun)
NuttX/nuttx/sched/libsched.a(sched_removereadytorun.o)
                              NuttX/nuttx/arch/arm/src/libarch.a(up_blocktask.o) (sched_removereadytorun)
NuttX/nuttx/sched/libsched.a(sched_addprioritized.o)
                              NuttX/nuttx/sched/libsched.a(sched_addreadytorun.o) (sched_addprioritized)
NuttX/nuttx/sched/libsched.a(sched_mergepending.o)
                              NuttX/nuttx/arch/arm/src/libarch.a(up_blocktask.o) (sched_mergepending)
NuttX/nuttx/sched/libsched.a(sched_addblocked.o)
                              NuttX/nuttx/arch/arm/src/libarch.a(up_blocktask.o) (sched_addblocked)
NuttX/nuttx/sched/libsched.a(sched_removeblocked.o)
                              NuttX/nuttx/arch/arm/src/libarch.a(up_unblocktask.o) (sched_removeblocked)
NuttX/nuttx/sched/libsched.a(sched_processtimer.o)
                              NuttX/nuttx/arch/arm/src/libarch.a(stm32_timerisr.o) (sched_process_timer)
NuttX/nuttx/sched/libsched.a(sem_destroy.o)
                              NuttX/nuttx/fs/libfs.a(fs_files.o) (sem_destroy)
NuttX/nuttx/sched/libsched.a(task_exit.o)
                              NuttX/nuttx/arch/arm/src/libarch.a(up_exit.o) (task_exit)
NuttX/nuttx/sched/libsched.a(task_terminate.o)
                              NuttX/nuttx/sched/libsched.a(task_exit.o) (task_terminate)
NuttX/nuttx/sched/libsched.a(wd_start.o)
                              NuttX/nuttx/sched/libsched.a(sched_processtimer.o) (wd_timer)
NuttX/nuttx/sched/libsched.a(sched_gettcb.o)
                              NuttX/nuttx/sched/libsched.a(task_terminate.o) (sched_gettcb)
src/drivers/stm32/libdrivers__stm32.a(drv_hrt.c.obj)
                              src/modules/px4iofirmware/libmodules__px4iofirmware.a(px4io.c.obj) (hrt_absolute_time)
src/drivers/stm32/libdrivers__stm32.a(drv_pwm_servo.c.obj)
                              src/modules/px4iofirmware/libmodules__px4iofirmware.a(mixer.cpp.obj) (up_pwm_servo_set)
src/drivers/stm32/libdrivers__stm32.a(drv_io_timer.c.obj)
                              src/drivers/stm32/libdrivers__stm32.a(drv_pwm_servo.c.obj) (io_timer_is_channel_free)
src/lib/rc/liblib__rc.a(st24.cpp.obj)
                              src/modules/px4iofirmware/libmodules__px4iofirmware.a(controls.c.obj) (st24_decode)
src/lib/rc/liblib__rc.a(sumd.cpp.obj)
                              src/modules/px4iofirmware/libmodules__px4iofirmware.a(controls.c.obj) (sumd_decode)
src/lib/rc/liblib__rc.a(sbus.cpp.obj)
                              src/modules/px4iofirmware/libmodules__px4iofirmware.a(controls.c.obj) (sbus_init)
src/lib/rc/liblib__rc.a(dsm.cpp.obj)
                              src/modules/px4iofirmware/libmodules__px4iofirmware.a(controls.c.obj) (dsm_init)
src/lib/rc/liblib__rc.a(common_rc.cpp.obj)
                              src/lib/rc/liblib__rc.a(st24.cpp.obj) (rc_decode_buf)
NuttX/nuttx/libc/libc.a(sq_addafter.o)
                              NuttX/nuttx/sched/libsched.a(wd_start.o) (sq_addafter)
NuttX/nuttx/libc/libc.a(dq_addlast.o)
                              NuttX/nuttx/sched/libsched.a(sched_addblocked.o) (dq_addlast)
NuttX/nuttx/libc/libc.a(lib_strdup.o)
                              NuttX/nuttx/drivers/libdrivers.a(syslog_device.o) (strdup)
NuttX/nuttx/libc/libc.a(lib_tcgetattr.o)
                              src/lib/rc/liblib__rc.a(sbus.cpp.obj) (tcgetattr)
NuttX/nuttx/libc/libc.a(lib_tcsetattr.o)
                              src/lib/rc/liblib__rc.a(sbus.cpp.obj) (tcsetattr)
NuttX/nuttx/fs/libfs.a(fs_ioctl.o)
                              src/lib/rc/liblib__rc.a(sbus.cpp.obj) (ioctl)
NuttX/nuttx/fs/libfs.a(fs_read.o)
                              src/lib/rc/liblib__rc.a(sbus.cpp.obj) (read)
src/drivers/boards/px4io-v2/libdrivers__boards__px4io-v2.a(px4io_timer_config.c.obj)
                              src/drivers/stm32/libdrivers__stm32.a(drv_io_timer.c.obj) (timer_io_channels)
/home/rablsa/gcc-arm-none-eabi-5_4-2016q2/bin/../lib/gcc/arm-none-eabi/5.4.1/../../../../arm-none-eabi/lib/armv7-m/libm.a(lib_a-sf_cos.o)
                              src/modules/systemlib/mixer/libmodules__systemlib__mixer.a(mixer_helicopter.cpp.obj) (cosf)
/home/rablsa/gcc-arm-none-eabi-5_4-2016q2/bin/../lib/gcc/arm-none-eabi/5.4.1/../../../../arm-none-eabi/lib/armv7-m/libm.a(lib_a-sf_floor.o)
                              src/modules/px4iofirmware/libmodules__px4iofirmware.a(mixer.cpp.obj) (floorf)
/home/rablsa/gcc-arm-none-eabi-5_4-2016q2/bin/../lib/gcc/arm-none-eabi/5.4.1/../../../../arm-none-eabi/lib/armv7-m/libm.a(lib_a-sf_fmax.o)
                              src/modules/systemlib/mixer/libmodules__systemlib__mixer.a(mixer_multirotor.cpp.obj) (fmaxf)
/home/rablsa/gcc-arm-none-eabi-5_4-2016q2/bin/../lib/gcc/arm-none-eabi/5.4.1/../../../../arm-none-eabi/lib/armv7-m/libm.a(lib_a-sf_fmin.o)
                              src/modules/systemlib/mixer/libmodules__systemlib__mixer.a(mixer_multirotor.cpp.obj) (fminf)
/home/rablsa/gcc-arm-none-eabi-5_4-2016q2/bin/../lib/gcc/arm-none-eabi/5.4.1/../../../../arm-none-eabi/lib/armv7-m/libm.a(lib_a-sf_fpclassify.o)
                              src/modules/px4iofirmware/libmodules__px4iofirmware.a(pwm_limit.c.obj) (__fpclassifyf)
/home/rablsa/gcc-arm-none-eabi-5_4-2016q2/bin/../lib/gcc/arm-none-eabi/5.4.1/../../../../arm-none-eabi/lib/armv7-m/libm.a(lib_a-sf_sin.o)
                              src/modules/systemlib/mixer/libmodules__systemlib__mixer.a(mixer_helicopter.cpp.obj) (sinf)
/home/rablsa/gcc-arm-none-eabi-5_4-2016q2/bin/../lib/gcc/arm-none-eabi/5.4.1/../../../../arm-none-eabi/lib/armv7-m/libm.a(lib_a-wf_sqrt.o)
                              src/modules/px4iofirmware/libmodules__px4iofirmware.a(perf_counter.c.obj) (sqrtf)
/home/rablsa/gcc-arm-none-eabi-5_4-2016q2/bin/../lib/gcc/arm-none-eabi/5.4.1/../../../../arm-none-eabi/lib/armv7-m/libm.a(lib_a-ef_rem_pio2.o)
                              /home/rablsa/gcc-arm-none-eabi-5_4-2016q2/bin/../lib/gcc/arm-none-eabi/5.4.1/../../../../arm-none-eabi/lib/armv7-m/libm.a(lib_a-sf_cos.o) (__ieee754_rem_pio2f)
/home/rablsa/gcc-arm-none-eabi-5_4-2016q2/bin/../lib/gcc/arm-none-eabi/5.4.1/../../../../arm-none-eabi/lib/armv7-m/libm.a(lib_a-ef_sqrt.o)
                              /home/rablsa/gcc-arm-none-eabi-5_4-2016q2/bin/../lib/gcc/arm-none-eabi/5.4.1/../../../../arm-none-eabi/lib/armv7-m/libm.a(lib_a-wf_sqrt.o) (__ieee754_sqrtf)
/home/rablsa/gcc-arm-none-eabi-5_4-2016q2/bin/../lib/gcc/arm-none-eabi/5.4.1/../../../../arm-none-eabi/lib/armv7-m/libm.a(lib_a-kf_cos.o)
                              /home/rablsa/gcc-arm-none-eabi-5_4-2016q2/bin/../lib/gcc/arm-none-eabi/5.4.1/../../../../arm-none-eabi/lib/armv7-m/libm.a(lib_a-sf_cos.o) (__kernel_cosf)
/home/rablsa/gcc-arm-none-eabi-5_4-2016q2/bin/../lib/gcc/arm-none-eabi/5.4.1/../../../../arm-none-eabi/lib/armv7-m/libm.a(lib_a-kf_rem_pio2.o)
                              /home/rablsa/gcc-arm-none-eabi-5_4-2016q2/bin/../lib/gcc/arm-none-eabi/5.4.1/../../../../arm-none-eabi/lib/armv7-m/libm.a(lib_a-ef_rem_pio2.o) (__kernel_rem_pio2f)
/home/rablsa/gcc-arm-none-eabi-5_4-2016q2/bin/../lib/gcc/arm-none-eabi/5.4.1/../../../../arm-none-eabi/lib/armv7-m/libm.a(lib_a-kf_sin.o)
                              /home/rablsa/gcc-arm-none-eabi-5_4-2016q2/bin/../lib/gcc/arm-none-eabi/5.4.1/../../../../arm-none-eabi/lib/armv7-m/libm.a(lib_a-sf_cos.o) (__kernel_sinf)
/home/rablsa/gcc-arm-none-eabi-5_4-2016q2/bin/../lib/gcc/arm-none-eabi/5.4.1/../../../../arm-none-eabi/lib/armv7-m/libm.a(lib_a-s_lib_ver.o)
                              /home/rablsa/gcc-arm-none-eabi-5_4-2016q2/bin/../lib/gcc/arm-none-eabi/5.4.1/../../../../arm-none-eabi/lib/armv7-m/libm.a(lib_a-wf_sqrt.o) (__fdlib_version)
/home/rablsa/gcc-arm-none-eabi-5_4-2016q2/bin/../lib/gcc/arm-none-eabi/5.4.1/../../../../arm-none-eabi/lib/armv7-m/libm.a(lib_a-s_matherr.o)
                              /home/rablsa/gcc-arm-none-eabi-5_4-2016q2/bin/../lib/gcc/arm-none-eabi/5.4.1/../../../../arm-none-eabi/lib/armv7-m/libm.a(lib_a-wf_sqrt.o) (matherr)
/home/rablsa/gcc-arm-none-eabi-5_4-2016q2/bin/../lib/gcc/arm-none-eabi/5.4.1/../../../../arm-none-eabi/lib/armv7-m/libm.a(lib_a-sf_fabs.o)
                              /home/rablsa/gcc-arm-none-eabi-5_4-2016q2/bin/../lib/gcc/arm-none-eabi/5.4.1/../../../../arm-none-eabi/lib/armv7-m/libm.a(lib_a-ef_rem_pio2.o) (fabsf)
/home/rablsa/gcc-arm-none-eabi-5_4-2016q2/bin/../lib/gcc/arm-none-eabi/5.4.1/../../../../arm-none-eabi/lib/armv7-m/libm.a(lib_a-sf_scalbn.o)
                              /home/rablsa/gcc-arm-none-eabi-5_4-2016q2/bin/../lib/gcc/arm-none-eabi/5.4.1/../../../../arm-none-eabi/lib/armv7-m/libm.a(lib_a-kf_rem_pio2.o) (scalbnf)
/home/rablsa/gcc-arm-none-eabi-5_4-2016q2/bin/../lib/gcc/arm-none-eabi/5.4.1/../../../../arm-none-eabi/lib/armv7-m/libm.a(lib_a-sf_copysign.o)
                              /home/rablsa/gcc-arm-none-eabi-5_4-2016q2/bin/../lib/gcc/arm-none-eabi/5.4.1/../../../../arm-none-eabi/lib/armv7-m/libm.a(lib_a-sf_scalbn.o) (copysignf)
/home/rablsa/gcc-arm-none-eabi-5_4-2016q2/bin/../lib/gcc/arm-none-eabi/5.4.1/armv7-m/libgcc.a(_arm_addsubdf3.o)
                              src/modules/px4iofirmware/libmodules__px4iofirmware.a(perf_counter.c.obj) (__aeabi_f2d)
/home/rablsa/gcc-arm-none-eabi-5_4-2016q2/bin/../lib/gcc/arm-none-eabi/5.4.1/armv7-m/libgcc.a(_arm_muldivdf3.o)
                              /home/rablsa/gcc-arm-none-eabi-5_4-2016q2/bin/../lib/gcc/arm-none-eabi/5.4.1/../../../../arm-none-eabi/lib/armv7-m/libm.a(lib_a-wf_sqrt.o) (__aeabi_ddiv)
/home/rablsa/gcc-arm-none-eabi-5_4-2016q2/bin/../lib/gcc/arm-none-eabi/5.4.1/armv7-m/libgcc.a(_arm_truncdfsf2.o)
                              /home/rablsa/gcc-arm-none-eabi-5_4-2016q2/bin/../lib/gcc/arm-none-eabi/5.4.1/../../../../arm-none-eabi/lib/armv7-m/libm.a(lib_a-wf_sqrt.o) (__aeabi_d2f)
/home/rablsa/gcc-arm-none-eabi-5_4-2016q2/bin/../lib/gcc/arm-none-eabi/5.4.1/armv7-m/libgcc.a(_arm_addsubsf3.o)
                              src/modules/px4iofirmware/libmodules__px4iofirmware.a(perf_counter.c.obj) (__aeabi_fsub)
/home/rablsa/gcc-arm-none-eabi-5_4-2016q2/bin/../lib/gcc/arm-none-eabi/5.4.1/armv7-m/libgcc.a(_arm_muldivsf3.o)
                              src/modules/px4iofirmware/libmodules__px4iofirmware.a(px4io.c.obj) (__aeabi_fmul)
/home/rablsa/gcc-arm-none-eabi-5_4-2016q2/bin/../lib/gcc/arm-none-eabi/5.4.1/armv7-m/libgcc.a(_arm_cmpsf2.o)
                              /home/rablsa/gcc-arm-none-eabi-5_4-2016q2/bin/../lib/gcc/arm-none-eabi/5.4.1/../../../../arm-none-eabi/lib/armv7-m/libm.a(lib_a-ef_rem_pio2.o) (__aeabi_fcmpeq)
/home/rablsa/gcc-arm-none-eabi-5_4-2016q2/bin/../lib/gcc/arm-none-eabi/5.4.1/armv7-m/libgcc.a(_arm_unordsf2.o)
                              src/modules/systemlib/mixer/libmodules__systemlib__mixer.a(mixer_helicopter.cpp.obj) (__aeabi_fcmpun)
/home/rablsa/gcc-arm-none-eabi-5_4-2016q2/bin/../lib/gcc/arm-none-eabi/5.4.1/armv7-m/libgcc.a(_arm_fixsfsi.o)
                              src/modules/px4iofirmware/libmodules__px4iofirmware.a(controls.c.obj) (__aeabi_f2iz)
/home/rablsa/gcc-arm-none-eabi-5_4-2016q2/bin/../lib/gcc/arm-none-eabi/5.4.1/armv7-m/libgcc.a(_arm_fixunssfsi.o)
                              src/modules/px4iofirmware/libmodules__px4iofirmware.a(pwm_limit.c.obj) (__aeabi_f2uiz)
/home/rablsa/gcc-arm-none-eabi-5_4-2016q2/bin/../lib/gcc/arm-none-eabi/5.4.1/armv7-m/libgcc.a(_aeabi_uldivmod.o)
                              src/modules/px4iofirmware/libmodules__px4iofirmware.a(perf_counter.c.obj) (__aeabi_uldivmod)
/home/rablsa/gcc-arm-none-eabi-5_4-2016q2/bin/../lib/gcc/arm-none-eabi/5.4.1/armv7-m/libgcc.a(_udivmoddi4.o)
                              /home/rablsa/gcc-arm-none-eabi-5_4-2016q2/bin/../lib/gcc/arm-none-eabi/5.4.1/armv7-m/libgcc.a(_aeabi_uldivmod.o) (__udivmoddi4)
/home/rablsa/gcc-arm-none-eabi-5_4-2016q2/bin/../lib/gcc/arm-none-eabi/5.4.1/armv7-m/libgcc.a(_dvmd_tls.o)
                              /home/rablsa/gcc-arm-none-eabi-5_4-2016q2/bin/../lib/gcc/arm-none-eabi/5.4.1/armv7-m/libgcc.a(_aeabi_uldivmod.o) (__aeabi_ldiv0)

Discarded input sections

 .text          0x00000000        0x0 src/firmware/nuttx/CMakeFiles/nuttx_px4io-v2_default.elf.dir/__/__/platforms/empty.c.obj
 .data          0x00000000        0x0 src/firmware/nuttx/CMakeFiles/nuttx_px4io-v2_default.elf.dir/__/__/platforms/empty.c.obj
 .bss           0x00000000        0x0 src/firmware/nuttx/CMakeFiles/nuttx_px4io-v2_default.elf.dir/__/__/platforms/empty.c.obj
 .debug_info    0x00000000       0x79 src/firmware/nuttx/CMakeFiles/nuttx_px4io-v2_default.elf.dir/__/__/platforms/empty.c.obj
 .debug_abbrev  0x00000000       0x26 src/firmware/nuttx/CMakeFiles/nuttx_px4io-v2_default.elf.dir/__/__/platforms/empty.c.obj
 .debug_aranges
                0x00000000       0x18 src/firmware/nuttx/CMakeFiles/nuttx_px4io-v2_default.elf.dir/__/__/platforms/empty.c.obj
 .debug_line    0x00000000       0x1d src/firmware/nuttx/CMakeFiles/nuttx_px4io-v2_default.elf.dir/__/__/platforms/empty.c.obj
 .debug_str     0x00000000      0x208 src/firmware/nuttx/CMakeFiles/nuttx_px4io-v2_default.elf.dir/__/__/platforms/empty.c.obj
 .comment       0x00000000       0x6f src/firmware/nuttx/CMakeFiles/nuttx_px4io-v2_default.elf.dir/__/__/platforms/empty.c.obj
 .ARM.attributes
                0x00000000       0x2f src/firmware/nuttx/CMakeFiles/nuttx_px4io-v2_default.elf.dir/__/__/platforms/empty.c.obj
 .text          0x00000000        0x0 NuttX/nuttx/arch/arm/src/libarch.a(stm32_start.o)
 .data          0x00000000        0x0 NuttX/nuttx/arch/arm/src/libarch.a(stm32_start.o)
 .bss           0x00000000        0x0 NuttX/nuttx/arch/arm/src/libarch.a(stm32_start.o)
 .text          0x00000000        0x0 NuttX/nuttx/arch/arm/src/libarch.a(stm32_rcc.o)
 .data          0x00000000        0x0 NuttX/nuttx/arch/arm/src/libarch.a(stm32_rcc.o)
 .bss           0x00000000        0x0 NuttX/nuttx/arch/arm/src/libarch.a(stm32_rcc.o)
 .text          0x00000000        0x0 NuttX/nuttx/arch/arm/src/libarch.a(stm32_gpio.o)
 .data          0x00000000        0x0 NuttX/nuttx/arch/arm/src/libarch.a(stm32_gpio.o)
 .bss           0x00000000        0x0 NuttX/nuttx/arch/arm/src/libarch.a(stm32_gpio.o)
 .text          0x00000000        0x0 NuttX/nuttx/arch/arm/src/libarch.a(stm32_lowputc.o)
 .data          0x00000000        0x0 NuttX/nuttx/arch/arm/src/libarch.a(stm32_lowputc.o)
 .bss           0x00000000        0x0 NuttX/nuttx/arch/arm/src/libarch.a(stm32_lowputc.o)
 .text          0x00000000        0x0 NuttX/nuttx/arch/arm/src/libarch.a(stm32_serial.o)
 .data          0x00000000        0x0 NuttX/nuttx/arch/arm/src/libarch.a(stm32_serial.o)
 .bss           0x00000000        0x0 NuttX/nuttx/arch/arm/src/libarch.a(stm32_serial.o)
 .text          0x00000000        0x0 NuttX/nuttx/arch/arm/src/libarch.a(up_modifyreg32.o)
 .data          0x00000000        0x0 NuttX/nuttx/arch/arm/src/libarch.a(up_modifyreg32.o)
 .bss           0x00000000        0x0 NuttX/nuttx/arch/arm/src/libarch.a(up_modifyreg32.o)
 .text          0x00000000        0x0 NuttX/nuttx/arch/arm/src/libarch.a(up_vectors.o)
 .data          0x00000000        0x0 NuttX/nuttx/arch/arm/src/libarch.a(up_vectors.o)
 .bss           0x00000000        0x0 NuttX/nuttx/arch/arm/src/libarch.a(up_vectors.o)
 .data          0x00000000        0x0 NuttX/nuttx/arch/arm/src/libarch.a(up_exception.o)
 .bss           0x00000000        0x0 NuttX/nuttx/arch/arm/src/libarch.a(up_exception.o)
 .text          0x00000000        0x0 NuttX/nuttx/arch/arm/src/libarch.a(stm32_irq.o)
 .data          0x00000000        0x0 NuttX/nuttx/arch/arm/src/libarch.a(stm32_irq.o)
 .bss           0x00000000        0x0 NuttX/nuttx/arch/arm/src/libarch.a(stm32_irq.o)
 .text          0x00000000        0x0 NuttX/nuttx/arch/arm/src/libarch.a(stm32_dma.o)
 .data          0x00000000        0x0 NuttX/nuttx/arch/arm/src/libarch.a(stm32_dma.o)
 .bss           0x00000000        0x0 NuttX/nuttx/arch/arm/src/libarch.a(stm32_dma.o)
 .text          0x00000000        0x0 NuttX/nuttx/arch/arm/src/libarch.a(up_assert.o)
 .data          0x00000000        0x0 NuttX/nuttx/arch/arm/src/libarch.a(up_assert.o)
 .bss           0x00000000        0x0 NuttX/nuttx/arch/arm/src/libarch.a(up_assert.o)
 .text          0x00000000        0x0 NuttX/nuttx/arch/arm/src/libarch.a(up_doirq.o)
 .data          0x00000000        0x0 NuttX/nuttx/arch/arm/src/libarch.a(up_doirq.o)
 .bss           0x00000000        0x0 NuttX/nuttx/arch/arm/src/libarch.a(up_doirq.o)
 .text          0x00000000        0x0 NuttX/nuttx/arch/arm/src/libarch.a(up_hardfault.o)
 .data          0x00000000        0x0 NuttX/nuttx/arch/arm/src/libarch.a(up_hardfault.o)
 .bss           0x00000000        0x0 NuttX/nuttx/arch/arm/src/libarch.a(up_hardfault.o)
 .text          0x00000000        0x0 NuttX/nuttx/arch/arm/src/libarch.a(up_svcall.o)
 .data          0x00000000        0x0 NuttX/nuttx/arch/arm/src/libarch.a(up_svcall.o)
 .bss           0x00000000        0x0 NuttX/nuttx/arch/arm/src/libarch.a(up_svcall.o)
 .text          0x00000000        0x0 NuttX/nuttx/arch/arm/src/libarch.a(up_checkstack.o)
 .data          0x00000000        0x0 NuttX/nuttx/arch/arm/src/libarch.a(up_checkstack.o)
 .bss           0x00000000        0x0 NuttX/nuttx/arch/arm/src/libarch.a(up_checkstack.o)
 .text.up_check_tcbstack_remain
                0x00000000        0xe NuttX/nuttx/arch/arm/src/libarch.a(up_checkstack.o)
 .text.up_check_stack
                0x00000000        0xc NuttX/nuttx/arch/arm/src/libarch.a(up_checkstack.o)
 .text.up_check_stack_remain
                0x00000000        0xc NuttX/nuttx/arch/arm/src/libarch.a(up_checkstack.o)
 .text          0x00000000        0x0 NuttX/nuttx/arch/arm/src/libarch.a(stm32_vectors.o)
 .data          0x00000000        0x0 NuttX/nuttx/arch/arm/src/libarch.a(stm32_vectors.o)
 .bss           0x00000000        0x0 NuttX/nuttx/arch/arm/src/libarch.a(stm32_vectors.o)
 .data          0x00000000        0x0 NuttX/nuttx/libc/libc.a(arch_memcpy.o)
 .bss           0x00000000        0x0 NuttX/nuttx/libc/libc.a(arch_memcpy.o)
 .text          0x00000000        0x0 NuttX/nuttx/libc/libc.a(sem_init.o)
 .data          0x00000000        0x0 NuttX/nuttx/libc/libc.a(sem_init.o)
 .bss           0x00000000        0x0 NuttX/nuttx/libc/libc.a(sem_init.o)
 .text          0x00000000        0x0 NuttX/nuttx/libc/libc.a(lib_abort.o)
 .data          0x00000000        0x0 NuttX/nuttx/libc/libc.a(lib_abort.o)
 .bss           0x00000000        0x0 NuttX/nuttx/libc/libc.a(lib_abort.o)
 .text          0x00000000        0x0 NuttX/nuttx/libc/libc.a(lib_strcpy.o)
 .data          0x00000000        0x0 NuttX/nuttx/libc/libc.a(lib_strcpy.o)
 .bss           0x00000000        0x0 NuttX/nuttx/libc/libc.a(lib_strcpy.o)
 .text          0x00000000        0x0 NuttX/nuttx/libc/libc.a(lib_syslog.o)
 .data          0x00000000        0x0 NuttX/nuttx/libc/libc.a(lib_syslog.o)
 .bss           0x00000000        0x0 NuttX/nuttx/libc/libc.a(lib_syslog.o)
 .text          0x00000000        0x0 NuttX/nuttx/libc/libc.a(lib_setlogmask.o)
 .data          0x00000000        0x0 NuttX/nuttx/libc/libc.a(lib_setlogmask.o)
 .bss           0x00000000        0x0 NuttX/nuttx/libc/libc.a(lib_setlogmask.o)
 .text.setlogmask
                0x00000000       0x20 NuttX/nuttx/libc/libc.a(lib_setlogmask.o)
 .text          0x00000000        0x0 NuttX/nuttx/libc/libc.a(lib_cfgetspeed.o)
 .data          0x00000000        0x0 NuttX/nuttx/libc/libc.a(lib_cfgetspeed.o)
 .bss           0x00000000        0x0 NuttX/nuttx/libc/libc.a(lib_cfgetspeed.o)
 .text          0x00000000        0x0 NuttX/nuttx/libc/libc.a(lib_cfsetspeed.o)
 .data          0x00000000        0x0 NuttX/nuttx/libc/libc.a(lib_cfsetspeed.o)
 .bss           0x00000000        0x0 NuttX/nuttx/libc/libc.a(lib_cfsetspeed.o)
 .text          0x00000000        0x0 NuttX/nuttx/drivers/libdrivers.a(serial.o)
 .data          0x00000000        0x0 NuttX/nuttx/drivers/libdrivers.a(serial.o)
 .bss           0x00000000        0x0 NuttX/nuttx/drivers/libdrivers.a(serial.o)
 .text          0x00000000        0x0 NuttX/nuttx/drivers/libdrivers.a(serial_io.o)
 .data          0x00000000        0x0 NuttX/nuttx/drivers/libdrivers.a(serial_io.o)
 .bss           0x00000000        0x0 NuttX/nuttx/drivers/libdrivers.a(serial_io.o)
 .text          0x00000000        0x0 NuttX/nuttx/drivers/libdrivers.a(vsyslog.o)
 .data          0x00000000        0x0 NuttX/nuttx/drivers/libdrivers.a(vsyslog.o)
 .bss           0x00000000        0x0 NuttX/nuttx/drivers/libdrivers.a(vsyslog.o)
 .text          0x00000000        0x0 NuttX/nuttx/drivers/libdrivers.a(syslog_stream.o)
 .data          0x00000000        0x0 NuttX/nuttx/drivers/libdrivers.a(syslog_stream.o)
 .bss           0x00000000        0x0 NuttX/nuttx/drivers/libdrivers.a(syslog_stream.o)
 .text          0x00000000        0x0 NuttX/nuttx/drivers/libdrivers.a(syslog_emergstream.o)
 .data          0x00000000        0x0 NuttX/nuttx/drivers/libdrivers.a(syslog_emergstream.o)
 .bss           0x00000000        0x0 NuttX/nuttx/drivers/libdrivers.a(syslog_emergstream.o)
 .text          0x00000000        0x0 NuttX/nuttx/drivers/libdrivers.a(syslog_putc.o)
 .data          0x00000000        0x0 NuttX/nuttx/drivers/libdrivers.a(syslog_putc.o)
 .bss           0x00000000        0x0 NuttX/nuttx/drivers/libdrivers.a(syslog_putc.o)
 .text          0x00000000        0x0 NuttX/nuttx/drivers/libdrivers.a(syslog_force.o)
 .data          0x00000000        0x0 NuttX/nuttx/drivers/libdrivers.a(syslog_force.o)
 .bss           0x00000000        0x0 NuttX/nuttx/drivers/libdrivers.a(syslog_force.o)
 .text          0x00000000        0x0 NuttX/nuttx/drivers/libdrivers.a(syslog_channel.o)
 .data          0x00000000        0x0 NuttX/nuttx/drivers/libdrivers.a(syslog_channel.o)
 .bss           0x00000000        0x0 NuttX/nuttx/drivers/libdrivers.a(syslog_channel.o)
 .text          0x00000000        0x0 NuttX/nuttx/fs/libfs.a(fs_registerdriver.o)
 .data          0x00000000        0x0 NuttX/nuttx/fs/libfs.a(fs_registerdriver.o)
 .bss           0x00000000        0x0 NuttX/nuttx/fs/libfs.a(fs_registerdriver.o)
 .text          0x00000000        0x0 NuttX/nuttx/fs/libfs.a(fs_inode.o)
 .data          0x00000000        0x0 NuttX/nuttx/fs/libfs.a(fs_inode.o)
 .bss           0x00000000        0x0 NuttX/nuttx/fs/libfs.a(fs_inode.o)
 .text          0x00000000        0x0 NuttX/nuttx/fs/libfs.a(fs_inodereserve.o)
 .data          0x00000000        0x0 NuttX/nuttx/fs/libfs.a(fs_inodereserve.o)
 .bss           0x00000000        0x0 NuttX/nuttx/fs/libfs.a(fs_inodereserve.o)
 .text          0x00000000        0x0 NuttX/nuttx/fs/libfs.a(fs_inodesearch.o)
 .data          0x00000000        0x0 NuttX/nuttx/fs/libfs.a(fs_inodesearch.o)
 .bss           0x00000000        0x0 NuttX/nuttx/fs/libfs.a(fs_inodesearch.o)
 .text          0x00000000        0x0 NuttX/nuttx/mm/libmm.a(umm_zalloc.o)
 .data          0x00000000        0x0 NuttX/nuttx/mm/libmm.a(umm_zalloc.o)
 .bss           0x00000000        0x0 NuttX/nuttx/mm/libmm.a(umm_zalloc.o)
 .text          0x00000000        0x0 NuttX/nuttx/mm/libmm.a(umm_globals.o)
 .data          0x00000000        0x0 NuttX/nuttx/mm/libmm.a(umm_globals.o)
 .bss           0x00000000        0x0 NuttX/nuttx/mm/libmm.a(umm_globals.o)
 .text          0x00000000        0x0 NuttX/nuttx/mm/libmm.a(mm_zalloc.o)
 .data          0x00000000        0x0 NuttX/nuttx/mm/libmm.a(mm_zalloc.o)
 .bss           0x00000000        0x0 NuttX/nuttx/mm/libmm.a(mm_zalloc.o)
 .text          0x00000000        0x0 NuttX/nuttx/mm/libmm.a(mm_malloc.o)
 .data          0x00000000        0x0 NuttX/nuttx/mm/libmm.a(mm_malloc.o)
 .bss           0x00000000        0x0 NuttX/nuttx/mm/libmm.a(mm_malloc.o)
 .text          0x00000000        0x0 NuttX/nuttx/mm/libmm.a(mm_sem.o)
 .data          0x00000000        0x0 NuttX/nuttx/mm/libmm.a(mm_sem.o)
 .bss           0x00000000        0x0 NuttX/nuttx/mm/libmm.a(mm_sem.o)
 .text          0x00000000        0x0 NuttX/nuttx/mm/libmm.a(mm_addfreechunk.o)
 .data          0x00000000        0x0 NuttX/nuttx/mm/libmm.a(mm_addfreechunk.o)
 .bss           0x00000000        0x0 NuttX/nuttx/mm/libmm.a(mm_addfreechunk.o)
 .text          0x00000000        0x0 NuttX/nuttx/mm/libmm.a(mm_size2ndx.o)
 .data          0x00000000        0x0 NuttX/nuttx/mm/libmm.a(mm_size2ndx.o)
 .bss           0x00000000        0x0 NuttX/nuttx/mm/libmm.a(mm_size2ndx.o)
 .text          0x00000000        0x0 NuttX/nuttx/sched/libsched.a(errno_getptr.o)
 .data          0x00000000        0x0 NuttX/nuttx/sched/libsched.a(errno_getptr.o)
 .bss           0x00000000        0x0 NuttX/nuttx/sched/libsched.a(errno_getptr.o)
 .text          0x00000000        0x0 NuttX/nuttx/sched/libsched.a(os_start.o)
 .data          0x00000000        0x0 NuttX/nuttx/sched/libsched.a(os_start.o)
 .bss           0x00000000        0x0 NuttX/nuttx/sched/libsched.a(os_start.o)
 .text          0x00000000        0x0 NuttX/nuttx/sched/libsched.a(os_bringup.o)
 .data          0x00000000        0x0 NuttX/nuttx/sched/libsched.a(os_bringup.o)
 .bss           0x00000000        0x0 NuttX/nuttx/sched/libsched.a(os_bringup.o)
 .text          0x00000000        0x0 NuttX/nuttx/sched/libsched.a(irq_attach.o)
 .data          0x00000000        0x0 NuttX/nuttx/sched/libsched.a(irq_attach.o)
 .bss           0x00000000        0x0 NuttX/nuttx/sched/libsched.a(irq_attach.o)
 .text          0x00000000        0x0 NuttX/nuttx/sched/libsched.a(irq_dispatch.o)
 .data          0x00000000        0x0 NuttX/nuttx/sched/libsched.a(irq_dispatch.o)
 .bss           0x00000000        0x0 NuttX/nuttx/sched/libsched.a(irq_dispatch.o)
 .text          0x00000000        0x0 NuttX/nuttx/sched/libsched.a(irq_unexpectedisr.o)
 .data          0x00000000        0x0 NuttX/nuttx/sched/libsched.a(irq_unexpectedisr.o)
 .bss           0x00000000        0x0 NuttX/nuttx/sched/libsched.a(irq_unexpectedisr.o)
 .text          0x00000000        0x0 NuttX/nuttx/sched/libsched.a(sched_garbage.o)
 .data          0x00000000        0x0 NuttX/nuttx/sched/libsched.a(sched_garbage.o)
 .bss           0x00000000        0x0 NuttX/nuttx/sched/libsched.a(sched_garbage.o)
 .text          0x00000000        0x0 NuttX/nuttx/sched/libsched.a(sched_foreach.o)
 .data          0x00000000        0x0 NuttX/nuttx/sched/libsched.a(sched_foreach.o)
 .bss           0x00000000        0x0 NuttX/nuttx/sched/libsched.a(sched_foreach.o)
 .text          0x00000000        0x0 NuttX/nuttx/sched/libsched.a(sched_idletask.o)
 .data          0x00000000        0x0 NuttX/nuttx/sched/libsched.a(sched_idletask.o)
 .bss           0x00000000        0x0 NuttX/nuttx/sched/libsched.a(sched_idletask.o)
 .text          0x00000000        0x0 NuttX/nuttx/sched/libsched.a(sem_wait.o)
 .data          0x00000000        0x0 NuttX/nuttx/sched/libsched.a(sem_wait.o)
 .bss           0x00000000        0x0 NuttX/nuttx/sched/libsched.a(sem_wait.o)
 .text          0x00000000        0x0 NuttX/nuttx/sched/libsched.a(sem_trywait.o)
 .data          0x00000000        0x0 NuttX/nuttx/sched/libsched.a(sem_trywait.o)
 .bss           0x00000000        0x0 NuttX/nuttx/sched/libsched.a(sem_trywait.o)
 .text          0x00000000        0x0 NuttX/nuttx/sched/libsched.a(sem_post.o)
 .data          0x00000000        0x0 NuttX/nuttx/sched/libsched.a(sem_post.o)
 .bss           0x00000000        0x0 NuttX/nuttx/sched/libsched.a(sem_post.o)
 .text          0x00000000        0x0 NuttX/nuttx/sched/libsched.a(sem_reset.o)
 .data          0x00000000        0x0 NuttX/nuttx/sched/libsched.a(sem_reset.o)
 .bss           0x00000000        0x0 NuttX/nuttx/sched/libsched.a(sem_reset.o)
 .text          0x00000000        0x0 NuttX/nuttx/sched/libsched.a(task_create.o)
 .data          0x00000000        0x0 NuttX/nuttx/sched/libsched.a(task_create.o)
 .bss           0x00000000        0x0 NuttX/nuttx/sched/libsched.a(task_create.o)
 .text.kernel_thread
                0x00000000       0x16 NuttX/nuttx/sched/libsched.a(task_create.o)
 .text          0x00000000        0x0 NuttX/nuttx/sched/libsched.a(task_setup.o)
 .data          0x00000000        0x0 NuttX/nuttx/sched/libsched.a(task_setup.o)
 .bss           0x00000000        0x0 NuttX/nuttx/sched/libsched.a(task_setup.o)
 .text          0x00000000        0x0 NuttX/nuttx/sched/libsched.a(task_activate.o)
 .data          0x00000000        0x0 NuttX/nuttx/sched/libsched.a(task_activate.o)
 .bss           0x00000000        0x0 NuttX/nuttx/sched/libsched.a(task_activate.o)
 .text          0x00000000        0x0 NuttX/nuttx/sched/libsched.a(task_start.o)
 .data          0x00000000        0x0 NuttX/nuttx/sched/libsched.a(task_start.o)
 .bss           0x00000000        0x0 NuttX/nuttx/sched/libsched.a(task_start.o)
 .text          0x00000000        0x0 NuttX/nuttx/sched/libsched.a(task_getpid.o)
 .data          0x00000000        0x0 NuttX/nuttx/sched/libsched.a(task_getpid.o)
 .bss           0x00000000        0x0 NuttX/nuttx/sched/libsched.a(task_getpid.o)
 .text          0x00000000        0x0 NuttX/nuttx/sched/libsched.a(exit.o)
 .data          0x00000000        0x0 NuttX/nuttx/sched/libsched.a(exit.o)
 .bss           0x00000000        0x0 NuttX/nuttx/sched/libsched.a(exit.o)
 .text          0x00000000        0x0 NuttX/nuttx/sched/libsched.a(group_create.o)
 .data          0x00000000        0x0 NuttX/nuttx/sched/libsched.a(group_create.o)
 .bss           0x00000000        0x0 NuttX/nuttx/sched/libsched.a(group_create.o)
 .text          0x00000000        0x0 NuttX/nuttx/sched/libsched.a(group_setupidlefiles.o)
 .data          0x00000000        0x0 NuttX/nuttx/sched/libsched.a(group_setupidlefiles.o)
 .bss           0x00000000        0x0 NuttX/nuttx/sched/libsched.a(group_setupidlefiles.o)
 .text          0x00000000        0x0 NuttX/nuttx/sched/libsched.a(group_setuptaskfiles.o)
 .data          0x00000000        0x0 NuttX/nuttx/sched/libsched.a(group_setuptaskfiles.o)
 .bss           0x00000000        0x0 NuttX/nuttx/sched/libsched.a(group_setuptaskfiles.o)
 .text          0x00000000        0x0 NuttX/nuttx/sched/libsched.a(irq_initialize.o)
 .data          0x00000000        0x0 NuttX/nuttx/sched/libsched.a(irq_initialize.o)
 .bss           0x00000000        0x0 NuttX/nuttx/sched/libsched.a(irq_initialize.o)
 .text          0x00000000        0x0 NuttX/nuttx/sched/libsched.a(sched_releasetcb.o)
 .data          0x00000000        0x0 NuttX/nuttx/sched/libsched.a(sched_releasetcb.o)
 .bss           0x00000000        0x0 NuttX/nuttx/sched/libsched.a(sched_releasetcb.o)
 .text          0x00000000        0x0 NuttX/nuttx/sched/libsched.a(sched_lock.o)
 .data          0x00000000        0x0 NuttX/nuttx/sched/libsched.a(sched_lock.o)
 .bss           0x00000000        0x0 NuttX/nuttx/sched/libsched.a(sched_lock.o)
 .text          0x00000000        0x0 NuttX/nuttx/sched/libsched.a(sched_unlock.o)
 .data          0x00000000        0x0 NuttX/nuttx/sched/libsched.a(sched_unlock.o)
 .bss           0x00000000        0x0 NuttX/nuttx/sched/libsched.a(sched_unlock.o)
 .text          0x00000000        0x0 NuttX/nuttx/sched/libsched.a(task_exithook.o)
 .data          0x00000000        0x0 NuttX/nuttx/sched/libsched.a(task_exithook.o)
 .bss           0x00000000        0x0 NuttX/nuttx/sched/libsched.a(task_exithook.o)
 .text          0x00000000        0x0 NuttX/nuttx/sched/libsched.a(task_recover.o)
 .data          0x00000000        0x0 NuttX/nuttx/sched/libsched.a(task_recover.o)
 .bss           0x00000000        0x0 NuttX/nuttx/sched/libsched.a(task_recover.o)
 .text          0x00000000        0x0 NuttX/nuttx/sched/libsched.a(wd_recover.o)
 .data          0x00000000        0x0 NuttX/nuttx/sched/libsched.a(wd_recover.o)
 .bss           0x00000000        0x0 NuttX/nuttx/sched/libsched.a(wd_recover.o)
 .text          0x00000000        0x0 NuttX/nuttx/sched/libsched.a(group_leave.o)
 .data          0x00000000        0x0 NuttX/nuttx/sched/libsched.a(group_leave.o)
 .bss           0x00000000        0x0 NuttX/nuttx/sched/libsched.a(group_leave.o)
 .text          0x00000000        0x0 NuttX/nuttx/sched/libsched.a(sched_free.o)
 .data          0x00000000        0x0 NuttX/nuttx/sched/libsched.a(sched_free.o)
 .bss           0x00000000        0x0 NuttX/nuttx/sched/libsched.a(sched_free.o)
 .text          0x00000000        0x0 NuttX/nuttx/sched/libsched.a(sem_recover.o)
 .data          0x00000000        0x0 NuttX/nuttx/sched/libsched.a(sem_recover.o)
 .bss           0x00000000        0x0 NuttX/nuttx/sched/libsched.a(sem_recover.o)
 .text          0x00000000        0x0 NuttX/nuttx/sched/libsched.a(wd_cancel.o)
 .data          0x00000000        0x0 NuttX/nuttx/sched/libsched.a(wd_cancel.o)
 .bss           0x00000000        0x0 NuttX/nuttx/sched/libsched.a(wd_cancel.o)
 .text          0x00000000        0x0 NuttX/nuttx/sched/libsched.a(wd_delete.o)
 .data          0x00000000        0x0 NuttX/nuttx/sched/libsched.a(wd_delete.o)
 .bss           0x00000000        0x0 NuttX/nuttx/sched/libsched.a(wd_delete.o)
 .text          0x00000000        0x0 NuttX/nuttx/sched/libsched.a(wd_initialize.o)
 .data          0x00000000        0x0 NuttX/nuttx/sched/libsched.a(wd_initialize.o)
 .bss           0x00000000        0x0 NuttX/nuttx/sched/libsched.a(wd_initialize.o)
 .text          0x00000000        0x0 src/drivers/boards/px4io-v2/libdrivers__boards__px4io-v2.a(px4io_init.c.obj)
 .data          0x00000000        0x0 src/drivers/boards/px4io-v2/libdrivers__boards__px4io-v2.a(px4io_init.c.obj)
 .bss           0x00000000        0x0 src/drivers/boards/px4io-v2/libdrivers__boards__px4io-v2.a(px4io_init.c.obj)
 .text          0x00000000        0x0 src/modules/px4iofirmware/libmodules__px4iofirmware.a(px4io.c.obj)
 .data          0x00000000        0x0 src/modules/px4iofirmware/libmodules__px4iofirmware.a(px4io.c.obj)
 .bss           0x00000000        0x0 src/modules/px4iofirmware/libmodules__px4iofirmware.a(px4io.c.obj)
 .text          0x00000000        0x0 src/modules/px4iofirmware/libmodules__px4iofirmware.a(registers.c.obj)
 .data          0x00000000        0x0 src/modules/px4iofirmware/libmodules__px4iofirmware.a(registers.c.obj)
 .bss           0x00000000        0x0 src/modules/px4iofirmware/libmodules__px4iofirmware.a(registers.c.obj)
 .text          0x00000000        0x0 src/modules/px4iofirmware/libmodules__px4iofirmware.a(safety.c.obj)
 .data          0x00000000        0x0 src/modules/px4iofirmware/libmodules__px4iofirmware.a(safety.c.obj)
 .bss           0x00000000        0x0 src/modules/px4iofirmware/libmodules__px4iofirmware.a(safety.c.obj)
 .text          0x00000000        0x0 src/modules/px4iofirmware/libmodules__px4iofirmware.a(serial.c.obj)
 .data          0x00000000        0x0 src/modules/px4iofirmware/libmodules__px4iofirmware.a(serial.c.obj)
 .bss           0x00000000        0x0 src/modules/px4iofirmware/libmodules__px4iofirmware.a(serial.c.obj)
 .text          0x00000000        0x0 src/modules/px4iofirmware/libmodules__px4iofirmware.a(perf_counter.c.obj)
 .data          0x00000000        0x0 src/modules/px4iofirmware/libmodules__px4iofirmware.a(perf_counter.c.obj)
 .bss           0x00000000        0x0 src/modules/px4iofirmware/libmodules__px4iofirmware.a(perf_counter.c.obj)
 .text.perf_alloc
                0x00000000       0x50 src/modules/px4iofirmware/libmodules__px4iofirmware.a(perf_counter.c.obj)
 .text.perf_alloc_once
                0x00000000       0x54 src/modules/px4iofirmware/libmodules__px4iofirmware.a(perf_counter.c.obj)
 .text.perf_free
                0x00000000       0x30 src/modules/px4iofirmware/libmodules__px4iofirmware.a(perf_counter.c.obj)
 .text.perf_set_elapsed
                0x00000000       0xa4 src/modules/px4iofirmware/libmodules__px4iofirmware.a(perf_counter.c.obj)
 .text.perf_set_count
                0x00000000        0xc src/modules/px4iofirmware/libmodules__px4iofirmware.a(perf_counter.c.obj)
 .text.perf_cancel
                0x00000000       0x12 src/modules/px4iofirmware/libmodules__px4iofirmware.a(perf_counter.c.obj)
 .text.perf_reset
                0x00000000       0x4e src/modules/px4iofirmware/libmodules__px4iofirmware.a(perf_counter.c.obj)
 .text.perf_print_counter_fd
                0x00000000      0x14c src/modules/px4iofirmware/libmodules__px4iofirmware.a(perf_counter.c.obj)
 .text.perf_print_counter
                0x00000000        0xc src/modules/px4iofirmware/libmodules__px4iofirmware.a(perf_counter.c.obj)
 .text.perf_print_counter_buffer
                0x00000000      0x170 src/modules/px4iofirmware/libmodules__px4iofirmware.a(perf_counter.c.obj)
 .text.perf_event_count
                0x00000000       0x1e src/modules/px4iofirmware/libmodules__px4iofirmware.a(perf_counter.c.obj)
 .text.perf_iterate_all
                0x00000000       0x30 src/modules/px4iofirmware/libmodules__px4iofirmware.a(perf_counter.c.obj)
 .text.perf_print_all
                0x00000000       0x30 src/modules/px4iofirmware/libmodules__px4iofirmware.a(perf_counter.c.obj)
 .text.perf_print_latency
                0x00000000       0x60 src/modules/px4iofirmware/libmodules__px4iofirmware.a(perf_counter.c.obj)
 .text.perf_reset_all
                0x00000000       0x44 src/modules/px4iofirmware/libmodules__px4iofirmware.a(perf_counter.c.obj)
 .data.perf_counters_mutex
                0x00000000        0xc src/modules/px4iofirmware/libmodules__px4iofirmware.a(perf_counter.c.obj)
 .rodata.str1.1
                0x00000000      0x173 src/modules/px4iofirmware/libmodules__px4iofirmware.a(perf_counter.c.obj)
 .bss.perf_counters
                0x00000000        0x8 src/modules/px4iofirmware/libmodules__px4iofirmware.a(perf_counter.c.obj)
 .text          0x00000000        0x0 src/modules/px4iofirmware/libmodules__px4iofirmware.a(pwm_limit.c.obj)
 .data          0x00000000        0x0 src/modules/px4iofirmware/libmodules__px4iofirmware.a(pwm_limit.c.obj)
 .bss           0x00000000        0x0 src/modules/px4iofirmware/libmodules__px4iofirmware.a(pwm_limit.c.obj)
 .text          0x00000000        0x0 src/modules/px4iofirmware/libmodules__px4iofirmware.a(adc.c.obj)
 .data          0x00000000        0x0 src/modules/px4iofirmware/libmodules__px4iofirmware.a(adc.c.obj)
 .bss           0x00000000        0x0 src/modules/px4iofirmware/libmodules__px4iofirmware.a(adc.c.obj)
 .text          0x00000000        0x0 src/modules/px4iofirmware/libmodules__px4iofirmware.a(controls.c.obj)
 .data          0x00000000        0x0 src/modules/px4iofirmware/libmodules__px4iofirmware.a(controls.c.obj)
 .bss           0x00000000        0x0 src/modules/px4iofirmware/libmodules__px4iofirmware.a(controls.c.obj)
 .text          0x00000000        0x0 src/modules/px4iofirmware/libmodules__px4iofirmware.a(mixer.cpp.obj)
 .data          0x00000000        0x0 src/modules/px4iofirmware/libmodules__px4iofirmware.a(mixer.cpp.obj)
 .bss           0x00000000        0x0 src/modules/px4iofirmware/libmodules__px4iofirmware.a(mixer.cpp.obj)
 .group         0x00000000        0x8 src/modules/systemlib/mixer/libmodules__systemlib__mixer.a(mixer_group.cpp.obj)
 .group         0x00000000        0x8 src/modules/systemlib/mixer/libmodules__systemlib__mixer.a(mixer_group.cpp.obj)
 .group         0x00000000        0x8 src/modules/systemlib/mixer/libmodules__systemlib__mixer.a(mixer_group.cpp.obj)
 .text          0x00000000        0x0 src/modules/systemlib/mixer/libmodules__systemlib__mixer.a(mixer_group.cpp.obj)
 .data          0x00000000        0x0 src/modules/systemlib/mixer/libmodules__systemlib__mixer.a(mixer_group.cpp.obj)
 .bss           0x00000000        0x0 src/modules/systemlib/mixer/libmodules__systemlib__mixer.a(mixer_group.cpp.obj)
 .text._ZN10MixerGroup5countEv
                0x00000000        0xe src/modules/systemlib/mixer/libmodules__systemlib__mixer.a(mixer_group.cpp.obj)
 .group         0x00000000        0x8 src/modules/systemlib/mixer/libmodules__systemlib__mixer.a(mixer_helicopter.cpp.obj)
 .group         0x00000000        0x8 src/modules/systemlib/mixer/libmodules__systemlib__mixer.a(mixer_helicopter.cpp.obj)
 .group         0x00000000        0x8 src/modules/systemlib/mixer/libmodules__systemlib__mixer.a(mixer_helicopter.cpp.obj)
 .group         0x00000000        0x8 src/modules/systemlib/mixer/libmodules__systemlib__mixer.a(mixer_helicopter.cpp.obj)
 .text          0x00000000        0x0 src/modules/systemlib/mixer/libmodules__systemlib__mixer.a(mixer_helicopter.cpp.obj)
 .data          0x00000000        0x0 src/modules/systemlib/mixer/libmodules__systemlib__mixer.a(mixer_helicopter.cpp.obj)
 .bss           0x00000000        0x0 src/modules/systemlib/mixer/libmodules__systemlib__mixer.a(mixer_helicopter.cpp.obj)
 .text._ZN5Mixer22set_max_delta_out_onceEf
                0x00000000        0x2 src/modules/systemlib/mixer/libmodules__systemlib__mixer.a(mixer_helicopter.cpp.obj)
 .text._ZN5Mixer17set_thrust_factorEf
                0x00000000        0x2 src/modules/systemlib/mixer/libmodules__systemlib__mixer.a(mixer_helicopter.cpp.obj)
 .group         0x00000000        0x8 src/modules/systemlib/mixer/libmodules__systemlib__mixer.a(mixer_multirotor.cpp.obj)
 .group         0x00000000        0x8 src/modules/systemlib/mixer/libmodules__systemlib__mixer.a(mixer_multirotor.cpp.obj)
 .group         0x00000000        0x8 src/modules/systemlib/mixer/libmodules__systemlib__mixer.a(mixer_multirotor.cpp.obj)
 .group         0x00000000        0x8 src/modules/systemlib/mixer/libmodules__systemlib__mixer.a(mixer_multirotor.cpp.obj)
 .group         0x00000000        0x8 src/modules/systemlib/mixer/libmodules__systemlib__mixer.a(mixer_multirotor.cpp.obj)
 .text          0x00000000        0x0 src/modules/systemlib/mixer/libmodules__systemlib__mixer.a(mixer_multirotor.cpp.obj)
 .data          0x00000000        0x0 src/modules/systemlib/mixer/libmodules__systemlib__mixer.a(mixer_multirotor.cpp.obj)
 .bss           0x00000000        0x0 src/modules/systemlib/mixer/libmodules__systemlib__mixer.a(mixer_multirotor.cpp.obj)
 .text._ZN5Mixer22set_max_delta_out_onceEf
                0x00000000        0x2 src/modules/systemlib/mixer/libmodules__systemlib__mixer.a(mixer_multirotor.cpp.obj)
 .text._ZN5Mixer17set_thrust_factorEf
                0x00000000        0x2 src/modules/systemlib/mixer/libmodules__systemlib__mixer.a(mixer_multirotor.cpp.obj)
 .group         0x00000000        0x8 src/modules/systemlib/mixer/libmodules__systemlib__mixer.a(mixer_simple.cpp.obj)
 .group         0x00000000        0x8 src/modules/systemlib/mixer/libmodules__systemlib__mixer.a(mixer_simple.cpp.obj)
 .text          0x00000000        0x0 src/modules/systemlib/mixer/libmodules__systemlib__mixer.a(mixer_simple.cpp.obj)
 .data          0x00000000        0x0 src/modules/systemlib/mixer/libmodules__systemlib__mixer.a(mixer_simple.cpp.obj)
 .bss           0x00000000        0x0 src/modules/systemlib/mixer/libmodules__systemlib__mixer.a(mixer_simple.cpp.obj)
 .text._ZN5Mixer22set_max_delta_out_onceEf
                0x00000000        0x2 src/modules/systemlib/mixer/libmodules__systemlib__mixer.a(mixer_simple.cpp.obj)
 .text._ZN5Mixer17set_thrust_factorEf
                0x00000000        0x2 src/modules/systemlib/mixer/libmodules__systemlib__mixer.a(mixer_simple.cpp.obj)
 .text._ZN11SimpleMixerC2EPFijhhRfEjP14mixer_simple_s
                0x00000000       0x18 src/modules/systemlib/mixer/libmodules__systemlib__mixer.a(mixer_simple.cpp.obj)
 .text._ZN11SimpleMixer9pwm_inputEPFijhhRfEjjttt
                0x00000000       0xac src/modules/systemlib/mixer/libmodules__systemlib__mixer.a(mixer_simple.cpp.obj)
 .text._ZN11SimpleMixer5checkEv
                0x00000000       0x60 src/modules/systemlib/mixer/libmodules__systemlib__mixer.a(mixer_simple.cpp.obj)
 .group         0x00000000        0x8 src/modules/systemlib/mixer/libmodules__systemlib__mixer.a(mixer.cpp.obj)
 .group         0x00000000        0x8 src/modules/systemlib/mixer/libmodules__systemlib__mixer.a(mixer.cpp.obj)
 .group         0x00000000        0xc src/modules/systemlib/mixer/libmodules__systemlib__mixer.a(mixer.cpp.obj)
 .group         0x00000000        0x8 src/modules/systemlib/mixer/libmodules__systemlib__mixer.a(mixer.cpp.obj)
 .group         0x00000000        0x8 src/modules/systemlib/mixer/libmodules__systemlib__mixer.a(mixer.cpp.obj)
 .group         0x00000000        0x8 src/modules/systemlib/mixer/libmodules__systemlib__mixer.a(mixer.cpp.obj)
 .text          0x00000000        0x0 src/modules/systemlib/mixer/libmodules__systemlib__mixer.a(mixer.cpp.obj)
 .data          0x00000000        0x0 src/modules/systemlib/mixer/libmodules__systemlib__mixer.a(mixer.cpp.obj)
 .bss           0x00000000        0x0 src/modules/systemlib/mixer/libmodules__systemlib__mixer.a(mixer.cpp.obj)
 .text._ZN5Mixer22set_max_delta_out_onceEf
                0x00000000        0x2 src/modules/systemlib/mixer/libmodules__systemlib__mixer.a(mixer.cpp.obj)
 .text._ZN5Mixer17set_thrust_factorEf
                0x00000000        0x2 src/modules/systemlib/mixer/libmodules__systemlib__mixer.a(mixer.cpp.obj)
 .text._ZN5Mixer11scale_checkER14mixer_scaler_s
                0x00000000       0x5c src/modules/systemlib/mixer/libmodules__systemlib__mixer.a(mixer.cpp.obj)
 .text          0x00000000        0x0 NuttX/apps/libapps.a(gnu_cxxinitialize.o)
 .data          0x00000000        0x0 NuttX/apps/libapps.a(gnu_cxxinitialize.o)
 .bss           0x00000000        0x0 NuttX/apps/libapps.a(gnu_cxxinitialize.o)
 .text          0x00000000        0x0 NuttX/nuttx/arch/arm/src/libarch.a(stm32_allocateheap.o)
 .data          0x00000000        0x0 NuttX/nuttx/arch/arm/src/libarch.a(stm32_allocateheap.o)
 .bss           0x00000000        0x0 NuttX/nuttx/arch/arm/src/libarch.a(stm32_allocateheap.o)
 .text          0x00000000        0x0 NuttX/nuttx/arch/arm/src/libarch.a(stm32_idle.o)
 .data          0x00000000        0x0 NuttX/nuttx/arch/arm/src/libarch.a(stm32_idle.o)
 .bss           0x00000000        0x0 NuttX/nuttx/arch/arm/src/libarch.a(stm32_idle.o)
 .text          0x00000000        0x0 NuttX/nuttx/arch/arm/src/libarch.a(up_blocktask.o)
 .data          0x00000000        0x0 NuttX/nuttx/arch/arm/src/libarch.a(up_blocktask.o)
 .bss           0x00000000        0x0 NuttX/nuttx/arch/arm/src/libarch.a(up_blocktask.o)
 .text          0x00000000        0x0 NuttX/nuttx/arch/arm/src/libarch.a(up_copyfullstate.o)
 .data          0x00000000        0x0 NuttX/nuttx/arch/arm/src/libarch.a(up_copyfullstate.o)
 .bss           0x00000000        0x0 NuttX/nuttx/arch/arm/src/libarch.a(up_copyfullstate.o)
 .text          0x00000000        0x0 NuttX/nuttx/arch/arm/src/libarch.a(up_createstack.o)
 .data          0x00000000        0x0 NuttX/nuttx/arch/arm/src/libarch.a(up_createstack.o)
 .bss           0x00000000        0x0 NuttX/nuttx/arch/arm/src/libarch.a(up_createstack.o)
 .text          0x00000000        0x0 NuttX/nuttx/arch/arm/src/libarch.a(up_mdelay.o)
 .data          0x00000000        0x0 NuttX/nuttx/arch/arm/src/libarch.a(up_mdelay.o)
 .bss           0x00000000        0x0 NuttX/nuttx/arch/arm/src/libarch.a(up_mdelay.o)
 .text          0x00000000        0x0 NuttX/nuttx/arch/arm/src/libarch.a(up_udelay.o)
 .data          0x00000000        0x0 NuttX/nuttx/arch/arm/src/libarch.a(up_udelay.o)
 .bss           0x00000000        0x0 NuttX/nuttx/arch/arm/src/libarch.a(up_udelay.o)
 .text          0x00000000        0x0 NuttX/nuttx/arch/arm/src/libarch.a(up_exit.o)
 .data          0x00000000        0x0 NuttX/nuttx/arch/arm/src/libarch.a(up_exit.o)
 .bss           0x00000000        0x0 NuttX/nuttx/arch/arm/src/libarch.a(up_exit.o)
 .text          0x00000000        0x0 NuttX/nuttx/arch/arm/src/libarch.a(up_initialize.o)
 .data          0x00000000        0x0 NuttX/nuttx/arch/arm/src/libarch.a(up_initialize.o)
 .bss           0x00000000        0x0 NuttX/nuttx/arch/arm/src/libarch.a(up_initialize.o)
 .text          0x00000000        0x0 NuttX/nuttx/arch/arm/src/libarch.a(up_initialstate.o)
 .data          0x00000000        0x0 NuttX/nuttx/arch/arm/src/libarch.a(up_initialstate.o)
 .bss           0x00000000        0x0 NuttX/nuttx/arch/arm/src/libarch.a(up_initialstate.o)
 .text          0x00000000        0x0 NuttX/nuttx/arch/arm/src/libarch.a(up_interruptcontext.o)
 .data          0x00000000        0x0 NuttX/nuttx/arch/arm/src/libarch.a(up_interruptcontext.o)
 .bss           0x00000000        0x0 NuttX/nuttx/arch/arm/src/libarch.a(up_interruptcontext.o)
 .text          0x00000000        0x0 NuttX/nuttx/arch/arm/src/libarch.a(up_releasepending.o)
 .data          0x00000000        0x0 NuttX/nuttx/arch/arm/src/libarch.a(up_releasepending.o)
 .bss           0x00000000        0x0 NuttX/nuttx/arch/arm/src/libarch.a(up_releasepending.o)
 .text          0x00000000        0x0 NuttX/nuttx/arch/arm/src/libarch.a(up_releasestack.o)
 .data          0x00000000        0x0 NuttX/nuttx/arch/arm/src/libarch.a(up_releasestack.o)
 .bss           0x00000000        0x0 NuttX/nuttx/arch/arm/src/libarch.a(up_releasestack.o)
 .text          0x00000000        0x0 NuttX/nuttx/arch/arm/src/libarch.a(up_stackframe.o)
 .data          0x00000000        0x0 NuttX/nuttx/arch/arm/src/libarch.a(up_stackframe.o)
 .bss           0x00000000        0x0 NuttX/nuttx/arch/arm/src/libarch.a(up_stackframe.o)
 .text          0x00000000        0x0 NuttX/nuttx/arch/arm/src/libarch.a(up_systemreset.o)
 .data          0x00000000        0x0 NuttX/nuttx/arch/arm/src/libarch.a(up_systemreset.o)
 .bss           0x00000000        0x0 NuttX/nuttx/arch/arm/src/libarch.a(up_systemreset.o)
 .text          0x00000000        0x0 NuttX/nuttx/arch/arm/src/libarch.a(up_unblocktask.o)
 .data          0x00000000        0x0 NuttX/nuttx/arch/arm/src/libarch.a(up_unblocktask.o)
 .bss           0x00000000        0x0 NuttX/nuttx/arch/arm/src/libarch.a(up_unblocktask.o)
 .data          0x00000000        0x0 NuttX/nuttx/arch/arm/src/libarch.a(up_fullcontextrestore.o)
 .bss           0x00000000        0x0 NuttX/nuttx/arch/arm/src/libarch.a(up_fullcontextrestore.o)
 .data          0x00000000        0x0 NuttX/nuttx/arch/arm/src/libarch.a(up_switchcontext.o)
 .bss           0x00000000        0x0 NuttX/nuttx/arch/arm/src/libarch.a(up_switchcontext.o)
 .text          0x00000000        0x0 NuttX/nuttx/arch/arm/src/libarch.a(stm32_timerisr.o)
 .data          0x00000000        0x0 NuttX/nuttx/arch/arm/src/libarch.a(stm32_timerisr.o)
 .bss           0x00000000        0x0 NuttX/nuttx/arch/arm/src/libarch.a(stm32_timerisr.o)
 .text          0x00000000        0x0 NuttX/nuttx/libc/libc.a(lib_crc32.o)
 .data          0x00000000        0x0 NuttX/nuttx/libc/libc.a(lib_crc32.o)
 .bss           0x00000000        0x0 NuttX/nuttx/libc/libc.a(lib_crc32.o)
 .text.crc32    0x00000000        0x6 NuttX/nuttx/libc/libc.a(lib_crc32.o)
 .text          0x00000000        0x0 NuttX/nuttx/libc/libc.a(sq_addlast.o)
 .data          0x00000000        0x0 NuttX/nuttx/libc/libc.a(sq_addlast.o)
 .bss           0x00000000        0x0 NuttX/nuttx/libc/libc.a(sq_addlast.o)
 .text          0x00000000        0x0 NuttX/nuttx/libc/libc.a(sq_addfirst.o)
 .data          0x00000000        0x0 NuttX/nuttx/libc/libc.a(sq_addfirst.o)
 .bss           0x00000000        0x0 NuttX/nuttx/libc/libc.a(sq_addfirst.o)
 .text          0x00000000        0x0 NuttX/nuttx/libc/libc.a(sq_rem.o)
 .data          0x00000000        0x0 NuttX/nuttx/libc/libc.a(sq_rem.o)
 .bss           0x00000000        0x0 NuttX/nuttx/libc/libc.a(sq_rem.o)
 .text          0x00000000        0x0 NuttX/nuttx/libc/libc.a(sq_remfirst.o)
 .data          0x00000000        0x0 NuttX/nuttx/libc/libc.a(sq_remfirst.o)
 .bss           0x00000000        0x0 NuttX/nuttx/libc/libc.a(sq_remfirst.o)
 .text          0x00000000        0x0 NuttX/nuttx/libc/libc.a(sq_remafter.o)
 .data          0x00000000        0x0 NuttX/nuttx/libc/libc.a(sq_remafter.o)
 .bss           0x00000000        0x0 NuttX/nuttx/libc/libc.a(sq_remafter.o)
 .text          0x00000000        0x0 NuttX/nuttx/libc/libc.a(dq_addfirst.o)
 .data          0x00000000        0x0 NuttX/nuttx/libc/libc.a(dq_addfirst.o)
 .bss           0x00000000        0x0 NuttX/nuttx/libc/libc.a(dq_addfirst.o)
 .text          0x00000000        0x0 NuttX/nuttx/libc/libc.a(dq_rem.o)
 .data          0x00000000        0x0 NuttX/nuttx/libc/libc.a(dq_rem.o)
 .bss           0x00000000        0x0 NuttX/nuttx/libc/libc.a(dq_rem.o)
 .text          0x00000000        0x0 NuttX/nuttx/libc/libc.a(sem_setprotocol.o)
 .data          0x00000000        0x0 NuttX/nuttx/libc/libc.a(sem_setprotocol.o)
 .bss           0x00000000        0x0 NuttX/nuttx/libc/libc.a(sem_setprotocol.o)
 .text          0x00000000        0x0 NuttX/nuttx/libc/libc.a(lib_printf.o)
 .data          0x00000000        0x0 NuttX/nuttx/libc/libc.a(lib_printf.o)
 .bss           0x00000000        0x0 NuttX/nuttx/libc/libc.a(lib_printf.o)
 .text          0x00000000        0x0 NuttX/nuttx/libc/libc.a(lib_snprintf.o)
 .data          0x00000000        0x0 NuttX/nuttx/libc/libc.a(lib_snprintf.o)
 .bss           0x00000000        0x0 NuttX/nuttx/libc/libc.a(lib_snprintf.o)
 .text.snprintf
                0x00000000       0x2e NuttX/nuttx/libc/libc.a(lib_snprintf.o)
 .debug_info    0x00000000      0x2a9 NuttX/nuttx/libc/libc.a(lib_snprintf.o)
 .debug_abbrev  0x00000000      0x17c NuttX/nuttx/libc/libc.a(lib_snprintf.o)
 .debug_loc     0x00000000       0xc4 NuttX/nuttx/libc/libc.a(lib_snprintf.o)
 .debug_aranges
                0x00000000       0x20 NuttX/nuttx/libc/libc.a(lib_snprintf.o)
 .debug_ranges  0x00000000       0x10 NuttX/nuttx/libc/libc.a(lib_snprintf.o)
 .debug_line    0x00000000      0x227 NuttX/nuttx/libc/libc.a(lib_snprintf.o)
 .debug_str     0x00000000      0x310 NuttX/nuttx/libc/libc.a(lib_snprintf.o)
 .comment       0x00000000       0x6f NuttX/nuttx/libc/libc.a(lib_snprintf.o)
 .debug_frame   0x00000000       0x38 NuttX/nuttx/libc/libc.a(lib_snprintf.o)
 .ARM.attributes
                0x00000000       0x2f NuttX/nuttx/libc/libc.a(lib_snprintf.o)
 .text          0x00000000        0x0 NuttX/nuttx/libc/libc.a(lib_vsnprintf.o)
 .data          0x00000000        0x0 NuttX/nuttx/libc/libc.a(lib_vsnprintf.o)
 .bss           0x00000000        0x0 NuttX/nuttx/libc/libc.a(lib_vsnprintf.o)
 .text          0x00000000        0x0 NuttX/nuttx/libc/libc.a(lib_libvsprintf.o)
 .data          0x00000000        0x0 NuttX/nuttx/libc/libc.a(lib_libvsprintf.o)
 .bss           0x00000000        0x0 NuttX/nuttx/libc/libc.a(lib_libvsprintf.o)
 .text          0x00000000        0x0 NuttX/nuttx/libc/libc.a(lib_dprintf.o)
 .data          0x00000000        0x0 NuttX/nuttx/libc/libc.a(lib_dprintf.o)
 .bss           0x00000000        0x0 NuttX/nuttx/libc/libc.a(lib_dprintf.o)
 .text.dprintf  0x00000000       0x1a NuttX/nuttx/libc/libc.a(lib_dprintf.o)
 .debug_info    0x00000000      0x143 NuttX/nuttx/libc/libc.a(lib_dprintf.o)
 .debug_abbrev  0x00000000       0xe0 NuttX/nuttx/libc/libc.a(lib_dprintf.o)
 .debug_loc     0x00000000       0x21 NuttX/nuttx/libc/libc.a(lib_dprintf.o)
 .debug_aranges
                0x00000000       0x20 NuttX/nuttx/libc/libc.a(lib_dprintf.o)
 .debug_ranges  0x00000000       0x10 NuttX/nuttx/libc/libc.a(lib_dprintf.o)
 .debug_line    0x00000000      0x104 NuttX/nuttx/libc/libc.a(lib_dprintf.o)
 .debug_str     0x00000000      0x243 NuttX/nuttx/libc/libc.a(lib_dprintf.o)
 .comment       0x00000000       0x6f NuttX/nuttx/libc/libc.a(lib_dprintf.o)
 .debug_frame   0x00000000       0x3c NuttX/nuttx/libc/libc.a(lib_dprintf.o)
 .ARM.attributes
                0x00000000       0x2f NuttX/nuttx/libc/libc.a(lib_dprintf.o)
 .text          0x00000000        0x0 NuttX/nuttx/libc/libc.a(lib_vdprintf.o)
 .data          0x00000000        0x0 NuttX/nuttx/libc/libc.a(lib_vdprintf.o)
 .bss           0x00000000        0x0 NuttX/nuttx/libc/libc.a(lib_vdprintf.o)
 .text.vdprintf
                0x00000000       0x1e NuttX/nuttx/libc/libc.a(lib_vdprintf.o)
 .debug_info    0x00000000      0x207 NuttX/nuttx/libc/libc.a(lib_vdprintf.o)
 .debug_abbrev  0x00000000      0x112 NuttX/nuttx/libc/libc.a(lib_vdprintf.o)
 .debug_loc     0x00000000       0x68 NuttX/nuttx/libc/libc.a(lib_vdprintf.o)
 .debug_aranges
                0x00000000       0x20 NuttX/nuttx/libc/libc.a(lib_vdprintf.o)
 .debug_ranges  0x00000000       0x10 NuttX/nuttx/libc/libc.a(lib_vdprintf.o)
 .debug_line    0x00000000      0x161 NuttX/nuttx/libc/libc.a(lib_vdprintf.o)
 .debug_str     0x00000000      0x2b3 NuttX/nuttx/libc/libc.a(lib_vdprintf.o)
 .comment       0x00000000       0x6f NuttX/nuttx/libc/libc.a(lib_vdprintf.o)
 .debug_frame   0x00000000       0x30 NuttX/nuttx/libc/libc.a(lib_vdprintf.o)
 .ARM.attributes
                0x00000000       0x2f NuttX/nuttx/libc/libc.a(lib_vdprintf.o)
 .text          0x00000000        0x0 NuttX/nuttx/libc/libc.a(lib_memoutstream.o)
 .data          0x00000000        0x0 NuttX/nuttx/libc/libc.a(lib_memoutstream.o)
 .bss           0x00000000        0x0 NuttX/nuttx/libc/libc.a(lib_memoutstream.o)
 .text          0x00000000        0x0 NuttX/nuttx/libc/libc.a(lib_nulloutstream.o)
 .data          0x00000000        0x0 NuttX/nuttx/libc/libc.a(lib_nulloutstream.o)
 .bss           0x00000000        0x0 NuttX/nuttx/libc/libc.a(lib_nulloutstream.o)
 .text          0x00000000        0x0 NuttX/nuttx/libc/libc.a(lib_sscanf.o)
 .data          0x00000000        0x0 NuttX/nuttx/libc/libc.a(lib_sscanf.o)
 .bss           0x00000000        0x0 NuttX/nuttx/libc/libc.a(lib_sscanf.o)
 .text          0x00000000        0x0 NuttX/nuttx/libc/libc.a(lib_rawsostream.o)
 .data          0x00000000        0x0 NuttX/nuttx/libc/libc.a(lib_rawsostream.o)
 .bss           0x00000000        0x0 NuttX/nuttx/libc/libc.a(lib_rawsostream.o)
 .text.rawoutstream_putc
                0x00000000       0x2e NuttX/nuttx/libc/libc.a(lib_rawsostream.o)
 .text.lib_rawoutstream
                0x00000000       0x18 NuttX/nuttx/libc/libc.a(lib_rawsostream.o)
 .debug_info    0x00000000      0x208 NuttX/nuttx/libc/libc.a(lib_rawsostream.o)
 .debug_abbrev  0x00000000      0x15a NuttX/nuttx/libc/libc.a(lib_rawsostream.o)
 .debug_loc     0x00000000       0x84 NuttX/nuttx/libc/libc.a(lib_rawsostream.o)
 .debug_aranges
                0x00000000       0x28 NuttX/nuttx/libc/libc.a(lib_rawsostream.o)
 .debug_ranges  0x00000000       0x18 NuttX/nuttx/libc/libc.a(lib_rawsostream.o)
 .debug_line    0x00000000      0x127 NuttX/nuttx/libc/libc.a(lib_rawsostream.o)
 .debug_str     0x00000000      0x2c0 NuttX/nuttx/libc/libc.a(lib_rawsostream.o)
 .comment       0x00000000       0x6f NuttX/nuttx/libc/libc.a(lib_rawsostream.o)
 .debug_frame   0x00000000       0x3c NuttX/nuttx/libc/libc.a(lib_rawsostream.o)
 .ARM.attributes
                0x00000000       0x2f NuttX/nuttx/libc/libc.a(lib_rawsostream.o)
 .text          0x00000000        0x0 NuttX/nuttx/libc/libc.a(lib_libnoflush.o)
 .data          0x00000000        0x0 NuttX/nuttx/libc/libc.a(lib_libnoflush.o)
 .bss           0x00000000        0x0 NuttX/nuttx/libc/libc.a(lib_libnoflush.o)
 .text          0x00000000        0x0 NuttX/nuttx/libc/libc.a(lib_strtol.o)
 .data          0x00000000        0x0 NuttX/nuttx/libc/libc.a(lib_strtol.o)
 .bss           0x00000000        0x0 NuttX/nuttx/libc/libc.a(lib_strtol.o)
 .text          0x00000000        0x0 NuttX/nuttx/libc/libc.a(lib_strtoul.o)
 .data          0x00000000        0x0 NuttX/nuttx/libc/libc.a(lib_strtoul.o)
 .bss           0x00000000        0x0 NuttX/nuttx/libc/libc.a(lib_strtoul.o)
 .text          0x00000000        0x0 NuttX/nuttx/libc/libc.a(lib_checkbase.o)
 .data          0x00000000        0x0 NuttX/nuttx/libc/libc.a(lib_checkbase.o)
 .bss           0x00000000        0x0 NuttX/nuttx/libc/libc.a(lib_checkbase.o)
 .text          0x00000000        0x0 NuttX/nuttx/libc/libc.a(lib_isbasedigit.o)
 .data          0x00000000        0x0 NuttX/nuttx/libc/libc.a(lib_isbasedigit.o)
 .bss           0x00000000        0x0 NuttX/nuttx/libc/libc.a(lib_isbasedigit.o)
 .text          0x00000000        0x0 NuttX/nuttx/libc/libc.a(lib_memset.o)
 .data          0x00000000        0x0 NuttX/nuttx/libc/libc.a(lib_memset.o)
 .bss           0x00000000        0x0 NuttX/nuttx/libc/libc.a(lib_memset.o)
 .text          0x00000000        0x0 NuttX/nuttx/libc/libc.a(lib_memchr.o)
 .data          0x00000000        0x0 NuttX/nuttx/libc/libc.a(lib_memchr.o)
 .bss           0x00000000        0x0 NuttX/nuttx/libc/libc.a(lib_memchr.o)
 .text          0x00000000        0x0 NuttX/nuttx/libc/libc.a(lib_memmove.o)
 .data          0x00000000        0x0 NuttX/nuttx/libc/libc.a(lib_memmove.o)
 .bss           0x00000000        0x0 NuttX/nuttx/libc/libc.a(lib_memmove.o)
 .text          0x00000000        0x0 NuttX/nuttx/libc/libc.a(lib_skipspace.o)
 .data          0x00000000        0x0 NuttX/nuttx/libc/libc.a(lib_skipspace.o)
 .bss           0x00000000        0x0 NuttX/nuttx/libc/libc.a(lib_skipspace.o)
 .text          0x00000000        0x0 NuttX/nuttx/libc/libc.a(lib_strchr.o)
 .data          0x00000000        0x0 NuttX/nuttx/libc/libc.a(lib_strchr.o)
 .bss           0x00000000        0x0 NuttX/nuttx/libc/libc.a(lib_strchr.o)
 .text          0x00000000        0x0 NuttX/nuttx/libc/libc.a(lib_strcmp.o)
 .data          0x00000000        0x0 NuttX/nuttx/libc/libc.a(lib_strcmp.o)
 .bss           0x00000000        0x0 NuttX/nuttx/libc/libc.a(lib_strcmp.o)
 .text          0x00000000        0x0 NuttX/nuttx/libc/libc.a(lib_strcspn.o)
 .data          0x00000000        0x0 NuttX/nuttx/libc/libc.a(lib_strcspn.o)
 .bss           0x00000000        0x0 NuttX/nuttx/libc/libc.a(lib_strcspn.o)
 .text          0x00000000        0x0 NuttX/nuttx/libc/libc.a(lib_strlen.o)
 .data          0x00000000        0x0 NuttX/nuttx/libc/libc.a(lib_strlen.o)
 .bss           0x00000000        0x0 NuttX/nuttx/libc/libc.a(lib_strlen.o)
 .text          0x00000000        0x0 NuttX/nuttx/libc/libc.a(lib_strnlen.o)
 .data          0x00000000        0x0 NuttX/nuttx/libc/libc.a(lib_strnlen.o)
 .bss           0x00000000        0x0 NuttX/nuttx/libc/libc.a(lib_strnlen.o)
 .text          0x00000000        0x0 NuttX/nuttx/libc/libc.a(lib_strncpy.o)
 .data          0x00000000        0x0 NuttX/nuttx/libc/libc.a(lib_strncpy.o)
 .bss           0x00000000        0x0 NuttX/nuttx/libc/libc.a(lib_strncpy.o)
 .text          0x00000000        0x0 NuttX/nuttx/libxx/libcxx.a(libxx_cxapurevirtual.o)
 .data          0x00000000        0x0 NuttX/nuttx/libxx/libcxx.a(libxx_cxapurevirtual.o)
 .bss           0x00000000        0x0 NuttX/nuttx/libxx/libcxx.a(libxx_cxapurevirtual.o)
 .text          0x00000000        0x0 NuttX/nuttx/libxx/libcxx.a(libxx_eabi_atexit.o)
 .data          0x00000000        0x0 NuttX/nuttx/libxx/libcxx.a(libxx_eabi_atexit.o)
 .bss           0x00000000        0x0 NuttX/nuttx/libxx/libcxx.a(libxx_eabi_atexit.o)
 .text          0x00000000        0x0 NuttX/nuttx/libxx/libcxx.a(libxx_cxa_atexit.o)
 .data          0x00000000        0x0 NuttX/nuttx/libxx/libcxx.a(libxx_cxa_atexit.o)
 .bss           0x00000000        0x0 NuttX/nuttx/libxx/libcxx.a(libxx_cxa_atexit.o)
 .text          0x00000000        0x0 NuttX/nuttx/libxx/libcxx.a(libxx_delete.o)
 .data          0x00000000        0x0 NuttX/nuttx/libxx/libcxx.a(libxx_delete.o)
 .bss           0x00000000        0x0 NuttX/nuttx/libxx/libcxx.a(libxx_delete.o)
 .text          0x00000000        0x0 NuttX/nuttx/libxx/libcxx.a(libxx_deletea.o)
 .data          0x00000000        0x0 NuttX/nuttx/libxx/libcxx.a(libxx_deletea.o)
 .bss           0x00000000        0x0 NuttX/nuttx/libxx/libcxx.a(libxx_deletea.o)
 .text          0x00000000        0x0 NuttX/nuttx/libxx/libcxx.a(libxx_new.o)
 .data          0x00000000        0x0 NuttX/nuttx/libxx/libcxx.a(libxx_new.o)
 .bss           0x00000000        0x0 NuttX/nuttx/libxx/libcxx.a(libxx_new.o)
 .text          0x00000000        0x0 NuttX/nuttx/libxx/libcxx.a(libxx_newa.o)
 .data          0x00000000        0x0 NuttX/nuttx/libxx/libcxx.a(libxx_newa.o)
 .bss           0x00000000        0x0 NuttX/nuttx/libxx/libcxx.a(libxx_newa.o)
 .text          0x00000000        0x0 NuttX/nuttx/drivers/libdrivers.a(syslog_initialize.o)
 .data          0x00000000        0x0 NuttX/nuttx/drivers/libdrivers.a(syslog_initialize.o)
 .bss           0x00000000        0x0 NuttX/nuttx/drivers/libdrivers.a(syslog_initialize.o)
 .text          0x00000000        0x0 NuttX/nuttx/drivers/libdrivers.a(syslog_consolechannel.o)
 .data          0x00000000        0x0 NuttX/nuttx/drivers/libdrivers.a(syslog_consolechannel.o)
 .bss           0x00000000        0x0 NuttX/nuttx/drivers/libdrivers.a(syslog_consolechannel.o)
 .text          0x00000000        0x0 NuttX/nuttx/drivers/libdrivers.a(syslog_device.o)
 .data          0x00000000        0x0 NuttX/nuttx/drivers/libdrivers.a(syslog_device.o)
 .bss           0x00000000        0x0 NuttX/nuttx/drivers/libdrivers.a(syslog_device.o)
 .text.syslog_dev_write
                0x00000000       0xd4 NuttX/nuttx/drivers/libdrivers.a(syslog_device.o)
 .text          0x00000000        0x0 NuttX/nuttx/fs/libfs.a(fs_initialize.o)
 .data          0x00000000        0x0 NuttX/nuttx/fs/libfs.a(fs_initialize.o)
 .bss           0x00000000        0x0 NuttX/nuttx/fs/libfs.a(fs_initialize.o)
 .text          0x00000000        0x0 NuttX/nuttx/fs/libfs.a(fs_files.o)
 .data          0x00000000        0x0 NuttX/nuttx/fs/libfs.a(fs_files.o)
 .bss           0x00000000        0x0 NuttX/nuttx/fs/libfs.a(fs_files.o)
 .text          0x00000000        0x0 NuttX/nuttx/fs/libfs.a(fs_inodeaddref.o)
 .data          0x00000000        0x0 NuttX/nuttx/fs/libfs.a(fs_inodeaddref.o)
 .bss           0x00000000        0x0 NuttX/nuttx/fs/libfs.a(fs_inodeaddref.o)
 .text          0x00000000        0x0 NuttX/nuttx/fs/libfs.a(fs_inoderelease.o)
 .data          0x00000000        0x0 NuttX/nuttx/fs/libfs.a(fs_inoderelease.o)
 .bss           0x00000000        0x0 NuttX/nuttx/fs/libfs.a(fs_inoderelease.o)
 .text          0x00000000        0x0 NuttX/nuttx/fs/libfs.a(fs_filedetach.o)
 .data          0x00000000        0x0 NuttX/nuttx/fs/libfs.a(fs_filedetach.o)
 .bss           0x00000000        0x0 NuttX/nuttx/fs/libfs.a(fs_filedetach.o)
 .text.file_close_detached
                0x00000000       0x2c NuttX/nuttx/fs/libfs.a(fs_filedetach.o)
 .text          0x00000000        0x0 NuttX/nuttx/fs/libfs.a(fs_close.o)
 .data          0x00000000        0x0 NuttX/nuttx/fs/libfs.a(fs_close.o)
 .bss           0x00000000        0x0 NuttX/nuttx/fs/libfs.a(fs_close.o)
 .text          0x00000000        0x0 NuttX/nuttx/fs/libfs.a(fs_dupfd2.o)
 .data          0x00000000        0x0 NuttX/nuttx/fs/libfs.a(fs_dupfd2.o)
 .bss           0x00000000        0x0 NuttX/nuttx/fs/libfs.a(fs_dupfd2.o)
 .text          0x00000000        0x0 NuttX/nuttx/fs/libfs.a(fs_getfilep.o)
 .data          0x00000000        0x0 NuttX/nuttx/fs/libfs.a(fs_getfilep.o)
 .bss           0x00000000        0x0 NuttX/nuttx/fs/libfs.a(fs_getfilep.o)
 .text          0x00000000        0x0 NuttX/nuttx/fs/libfs.a(fs_open.o)
 .data          0x00000000        0x0 NuttX/nuttx/fs/libfs.a(fs_open.o)
 .bss           0x00000000        0x0 NuttX/nuttx/fs/libfs.a(fs_open.o)
 .text          0x00000000        0x0 NuttX/nuttx/fs/libfs.a(fs_write.o)
 .data          0x00000000        0x0 NuttX/nuttx/fs/libfs.a(fs_write.o)
 .bss           0x00000000        0x0 NuttX/nuttx/fs/libfs.a(fs_write.o)
 .text          0x00000000        0x0 NuttX/nuttx/fs/libfs.a(fs_inodefind.o)
 .data          0x00000000        0x0 NuttX/nuttx/fs/libfs.a(fs_inodefind.o)
 .bss           0x00000000        0x0 NuttX/nuttx/fs/libfs.a(fs_inodefind.o)
 .text          0x00000000        0x0 NuttX/nuttx/fs/libfs.a(fs_inodefree.o)
 .data          0x00000000        0x0 NuttX/nuttx/fs/libfs.a(fs_inodefree.o)
 .bss           0x00000000        0x0 NuttX/nuttx/fs/libfs.a(fs_inodefree.o)
 .text          0x00000000        0x0 NuttX/nuttx/mm/libmm.a(umm_initialize.o)
 .data          0x00000000        0x0 NuttX/nuttx/mm/libmm.a(umm_initialize.o)
 .bss           0x00000000        0x0 NuttX/nuttx/mm/libmm.a(umm_initialize.o)
 .text          0x00000000        0x0 NuttX/nuttx/mm/libmm.a(umm_sem.o)
 .data          0x00000000        0x0 NuttX/nuttx/mm/libmm.a(umm_sem.o)
 .bss           0x00000000        0x0 NuttX/nuttx/mm/libmm.a(umm_sem.o)
 .text          0x00000000        0x0 NuttX/nuttx/mm/libmm.a(umm_calloc.o)
 .data          0x00000000        0x0 NuttX/nuttx/mm/libmm.a(umm_calloc.o)
 .bss           0x00000000        0x0 NuttX/nuttx/mm/libmm.a(umm_calloc.o)
 .text.calloc   0x00000000       0x10 NuttX/nuttx/mm/libmm.a(umm_calloc.o)
 .debug_info    0x00000000      0x26d NuttX/nuttx/mm/libmm.a(umm_calloc.o)
 .debug_abbrev  0x00000000      0x110 NuttX/nuttx/mm/libmm.a(umm_calloc.o)
 .debug_loc     0x00000000       0x58 NuttX/nuttx/mm/libmm.a(umm_calloc.o)
 .debug_aranges
                0x00000000       0x20 NuttX/nuttx/mm/libmm.a(umm_calloc.o)
 .debug_ranges  0x00000000       0x10 NuttX/nuttx/mm/libmm.a(umm_calloc.o)
 .debug_line    0x00000000      0x1c5 NuttX/nuttx/mm/libmm.a(umm_calloc.o)
 .debug_str     0x00000000      0x326 NuttX/nuttx/mm/libmm.a(umm_calloc.o)
 .comment       0x00000000       0x6f NuttX/nuttx/mm/libmm.a(umm_calloc.o)
 .debug_frame   0x00000000       0x20 NuttX/nuttx/mm/libmm.a(umm_calloc.o)
 .ARM.attributes
                0x00000000       0x2f NuttX/nuttx/mm/libmm.a(umm_calloc.o)
 .text          0x00000000        0x0 NuttX/nuttx/mm/libmm.a(umm_free.o)
 .data          0x00000000        0x0 NuttX/nuttx/mm/libmm.a(umm_free.o)
 .bss           0x00000000        0x0 NuttX/nuttx/mm/libmm.a(umm_free.o)
 .text          0x00000000        0x0 NuttX/nuttx/mm/libmm.a(umm_mallinfo.o)
 .data          0x00000000        0x0 NuttX/nuttx/mm/libmm.a(umm_mallinfo.o)
 .bss           0x00000000        0x0 NuttX/nuttx/mm/libmm.a(umm_mallinfo.o)
 .text          0x00000000        0x0 NuttX/nuttx/mm/libmm.a(umm_malloc.o)
 .data          0x00000000        0x0 NuttX/nuttx/mm/libmm.a(umm_malloc.o)
 .bss           0x00000000        0x0 NuttX/nuttx/mm/libmm.a(umm_malloc.o)
 .text          0x00000000        0x0 NuttX/nuttx/mm/libmm.a(mm_initialize.o)
 .data          0x00000000        0x0 NuttX/nuttx/mm/libmm.a(mm_initialize.o)
 .bss           0x00000000        0x0 NuttX/nuttx/mm/libmm.a(mm_initialize.o)
 .text          0x00000000        0x0 NuttX/nuttx/mm/libmm.a(mm_calloc.o)
 .data          0x00000000        0x0 NuttX/nuttx/mm/libmm.a(mm_calloc.o)
 .bss           0x00000000        0x0 NuttX/nuttx/mm/libmm.a(mm_calloc.o)
 .text.mm_calloc
                0x00000000        0xe NuttX/nuttx/mm/libmm.a(mm_calloc.o)
 .debug_info    0x00000000      0x283 NuttX/nuttx/mm/libmm.a(mm_calloc.o)
 .debug_abbrev  0x00000000      0x10e NuttX/nuttx/mm/libmm.a(mm_calloc.o)
 .debug_loc     0x00000000       0xa6 NuttX/nuttx/mm/libmm.a(mm_calloc.o)
 .debug_aranges
                0x00000000       0x20 NuttX/nuttx/mm/libmm.a(mm_calloc.o)
 .debug_ranges  0x00000000       0x10 NuttX/nuttx/mm/libmm.a(mm_calloc.o)
 .debug_line    0x00000000      0x1c0 NuttX/nuttx/mm/libmm.a(mm_calloc.o)
 .debug_str     0x00000000      0x31a NuttX/nuttx/mm/libmm.a(mm_calloc.o)
 .comment       0x00000000       0x6f NuttX/nuttx/mm/libmm.a(mm_calloc.o)
 .debug_frame   0x00000000       0x20 NuttX/nuttx/mm/libmm.a(mm_calloc.o)
 .ARM.attributes
                0x00000000       0x2f NuttX/nuttx/mm/libmm.a(mm_calloc.o)
 .text          0x00000000        0x0 NuttX/nuttx/mm/libmm.a(mm_free.o)
 .data          0x00000000        0x0 NuttX/nuttx/mm/libmm.a(mm_free.o)
 .bss           0x00000000        0x0 NuttX/nuttx/mm/libmm.a(mm_free.o)
 .text          0x00000000        0x0 NuttX/nuttx/mm/libmm.a(mm_mallinfo.o)
 .data          0x00000000        0x0 NuttX/nuttx/mm/libmm.a(mm_mallinfo.o)
 .bss           0x00000000        0x0 NuttX/nuttx/mm/libmm.a(mm_mallinfo.o)
 .text          0x00000000        0x0 NuttX/nuttx/sched/libsched.a(sched_getfiles.o)
 .data          0x00000000        0x0 NuttX/nuttx/sched/libsched.a(sched_getfiles.o)
 .bss           0x00000000        0x0 NuttX/nuttx/sched/libsched.a(sched_getfiles.o)
 .text          0x00000000        0x0 NuttX/nuttx/sched/libsched.a(sched_addreadytorun.o)
 .data          0x00000000        0x0 NuttX/nuttx/sched/libsched.a(sched_addreadytorun.o)
 .bss           0x00000000        0x0 NuttX/nuttx/sched/libsched.a(sched_addreadytorun.o)
 .text          0x00000000        0x0 NuttX/nuttx/sched/libsched.a(sched_removereadytorun.o)
 .data          0x00000000        0x0 NuttX/nuttx/sched/libsched.a(sched_removereadytorun.o)
 .bss           0x00000000        0x0 NuttX/nuttx/sched/libsched.a(sched_removereadytorun.o)
 .text          0x00000000        0x0 NuttX/nuttx/sched/libsched.a(sched_addprioritized.o)
 .data          0x00000000        0x0 NuttX/nuttx/sched/libsched.a(sched_addprioritized.o)
 .bss           0x00000000        0x0 NuttX/nuttx/sched/libsched.a(sched_addprioritized.o)
 .text          0x00000000        0x0 NuttX/nuttx/sched/libsched.a(sched_mergepending.o)
 .data          0x00000000        0x0 NuttX/nuttx/sched/libsched.a(sched_mergepending.o)
 .bss           0x00000000        0x0 NuttX/nuttx/sched/libsched.a(sched_mergepending.o)
 .text          0x00000000        0x0 NuttX/nuttx/sched/libsched.a(sched_addblocked.o)
 .data          0x00000000        0x0 NuttX/nuttx/sched/libsched.a(sched_addblocked.o)
 .bss           0x00000000        0x0 NuttX/nuttx/sched/libsched.a(sched_addblocked.o)
 .text          0x00000000        0x0 NuttX/nuttx/sched/libsched.a(sched_removeblocked.o)
 .data          0x00000000        0x0 NuttX/nuttx/sched/libsched.a(sched_removeblocked.o)
 .bss           0x00000000        0x0 NuttX/nuttx/sched/libsched.a(sched_removeblocked.o)
 .text          0x00000000        0x0 NuttX/nuttx/sched/libsched.a(sched_processtimer.o)
 .data          0x00000000        0x0 NuttX/nuttx/sched/libsched.a(sched_processtimer.o)
 .bss           0x00000000        0x0 NuttX/nuttx/sched/libsched.a(sched_processtimer.o)
 .text          0x00000000        0x0 NuttX/nuttx/sched/libsched.a(sem_destroy.o)
 .data          0x00000000        0x0 NuttX/nuttx/sched/libsched.a(sem_destroy.o)
 .bss           0x00000000        0x0 NuttX/nuttx/sched/libsched.a(sem_destroy.o)
 .text          0x00000000        0x0 NuttX/nuttx/sched/libsched.a(task_exit.o)
 .data          0x00000000        0x0 NuttX/nuttx/sched/libsched.a(task_exit.o)
 .bss           0x00000000        0x0 NuttX/nuttx/sched/libsched.a(task_exit.o)
 .text          0x00000000        0x0 NuttX/nuttx/sched/libsched.a(task_terminate.o)
 .data          0x00000000        0x0 NuttX/nuttx/sched/libsched.a(task_terminate.o)
 .bss           0x00000000        0x0 NuttX/nuttx/sched/libsched.a(task_terminate.o)
 .text          0x00000000        0x0 NuttX/nuttx/sched/libsched.a(wd_start.o)
 .data          0x00000000        0x0 NuttX/nuttx/sched/libsched.a(wd_start.o)
 .bss           0x00000000        0x0 NuttX/nuttx/sched/libsched.a(wd_start.o)
 .text.wd_start
                0x00000000       0xdc NuttX/nuttx/sched/libsched.a(wd_start.o)
 .text          0x00000000        0x0 NuttX/nuttx/sched/libsched.a(sched_gettcb.o)
 .data          0x00000000        0x0 NuttX/nuttx/sched/libsched.a(sched_gettcb.o)
 .bss           0x00000000        0x0 NuttX/nuttx/sched/libsched.a(sched_gettcb.o)
 .text          0x00000000        0x0 src/drivers/stm32/libdrivers__stm32.a(drv_hrt.c.obj)
 .data          0x00000000        0x0 src/drivers/stm32/libdrivers__stm32.a(drv_hrt.c.obj)
 .bss           0x00000000        0x0 src/drivers/stm32/libdrivers__stm32.a(drv_hrt.c.obj)
 .text.ts_to_abstime
                0x00000000       0x1c src/drivers/stm32/libdrivers__stm32.a(drv_hrt.c.obj)
 .text.abstime_to_ts
                0x00000000       0x2c src/drivers/stm32/libdrivers__stm32.a(drv_hrt.c.obj)
 .text.hrt_store_absolute_time
                0x00000000       0x18 src/drivers/stm32/libdrivers__stm32.a(drv_hrt.c.obj)
 .text.hrt_call_after
                0x00000000       0x2c src/drivers/stm32/libdrivers__stm32.a(drv_hrt.c.obj)
 .text.hrt_call_at
                0x00000000       0x1c src/drivers/stm32/libdrivers__stm32.a(drv_hrt.c.obj)
 .text.hrt_called
                0x00000000        0xe src/drivers/stm32/libdrivers__stm32.a(drv_hrt.c.obj)
 .text.hrt_cancel
                0x00000000       0x2c src/drivers/stm32/libdrivers__stm32.a(drv_hrt.c.obj)
 .text.hrt_call_init
                0x00000000        0x8 src/drivers/stm32/libdrivers__stm32.a(drv_hrt.c.obj)
 .text.hrt_call_delay
                0x00000000       0x16 src/drivers/stm32/libdrivers__stm32.a(drv_hrt.c.obj)
 .rodata.latency_bucket_count
                0x00000000        0x2 src/drivers/stm32/libdrivers__stm32.a(drv_hrt.c.obj)
 .text          0x00000000        0x0 src/drivers/stm32/libdrivers__stm32.a(drv_pwm_servo.c.obj)
 .data          0x00000000        0x0 src/drivers/stm32/libdrivers__stm32.a(drv_pwm_servo.c.obj)
 .bss           0x00000000        0x0 src/drivers/stm32/libdrivers__stm32.a(drv_pwm_servo.c.obj)
 .text.up_pwm_servo_get
                0x00000000        0x4 src/drivers/stm32/libdrivers__stm32.a(drv_pwm_servo.c.obj)
 .text.up_pwm_servo_set_rate
                0x00000000       0x18 src/drivers/stm32/libdrivers__stm32.a(drv_pwm_servo.c.obj)
 .text.up_pwm_servo_deinit
                0x00000000        0x6 src/drivers/stm32/libdrivers__stm32.a(drv_pwm_servo.c.obj)
 .text          0x00000000        0x0 src/drivers/stm32/libdrivers__stm32.a(drv_io_timer.c.obj)
 .data          0x00000000        0x0 src/drivers/stm32/libdrivers__stm32.a(drv_io_timer.c.obj)
 .bss           0x00000000        0x0 src/drivers/stm32/libdrivers__stm32.a(drv_io_timer.c.obj)
 .text.io_timer_handler3
                0x00000000        0x4 src/drivers/stm32/libdrivers__stm32.a(drv_io_timer.c.obj)
 .text.io_timer_handler4
                0x00000000        0x4 src/drivers/stm32/libdrivers__stm32.a(drv_io_timer.c.obj)
 .text.io_channel_get_ccr
                0x00000000       0x44 src/drivers/stm32/libdrivers__stm32.a(drv_io_timer.c.obj)
 .text          0x00000000        0x0 src/lib/rc/liblib__rc.a(st24.cpp.obj)
 .data          0x00000000        0x0 src/lib/rc/liblib__rc.a(st24.cpp.obj)
 .bss           0x00000000        0x0 src/lib/rc/liblib__rc.a(st24.cpp.obj)
 .data.decode_states
                0x00000000       0x18 src/lib/rc/liblib__rc.a(st24.cpp.obj)
 .rodata.str1.1
                0x00000000       0x35 src/lib/rc/liblib__rc.a(st24.cpp.obj)
 .text          0x00000000        0x0 src/lib/rc/liblib__rc.a(sumd.cpp.obj)
 .data          0x00000000        0x0 src/lib/rc/liblib__rc.a(sumd.cpp.obj)
 .bss           0x00000000        0x0 src/lib/rc/liblib__rc.a(sumd.cpp.obj)
 .text.sumd_crc8
                0x00000000        0x6 src/lib/rc/liblib__rc.a(sumd.cpp.obj)
 .text          0x00000000        0x0 src/lib/rc/liblib__rc.a(sbus.cpp.obj)
 .data          0x00000000        0x0 src/lib/rc/liblib__rc.a(sbus.cpp.obj)
 .bss           0x00000000        0x0 src/lib/rc/liblib__rc.a(sbus.cpp.obj)
 .text.sbus_dropped_frames
                0x00000000        0xc src/lib/rc/liblib__rc.a(sbus.cpp.obj)
 .text          0x00000000        0x0 src/lib/rc/liblib__rc.a(dsm.cpp.obj)
 .data          0x00000000        0x0 src/lib/rc/liblib__rc.a(dsm.cpp.obj)
 .bss           0x00000000        0x0 src/lib/rc/liblib__rc.a(dsm.cpp.obj)
 .text.dsm_deinit
                0x00000000       0x1c src/lib/rc/liblib__rc.a(dsm.cpp.obj)
 .text          0x00000000        0x0 src/lib/rc/liblib__rc.a(common_rc.cpp.obj)
 .data          0x00000000        0x0 src/lib/rc/liblib__rc.a(common_rc.cpp.obj)
 .bss           0x00000000        0x0 src/lib/rc/liblib__rc.a(common_rc.cpp.obj)
 .text          0x00000000        0x0 NuttX/nuttx/libc/libc.a(sq_addafter.o)
 .data          0x00000000        0x0 NuttX/nuttx/libc/libc.a(sq_addafter.o)
 .bss           0x00000000        0x0 NuttX/nuttx/libc/libc.a(sq_addafter.o)
 .text          0x00000000        0x0 NuttX/nuttx/libc/libc.a(dq_addlast.o)
 .data          0x00000000        0x0 NuttX/nuttx/libc/libc.a(dq_addlast.o)
 .bss           0x00000000        0x0 NuttX/nuttx/libc/libc.a(dq_addlast.o)
 .text          0x00000000        0x0 NuttX/nuttx/libc/libc.a(lib_strdup.o)
 .data          0x00000000        0x0 NuttX/nuttx/libc/libc.a(lib_strdup.o)
 .bss           0x00000000        0x0 NuttX/nuttx/libc/libc.a(lib_strdup.o)
 .text          0x00000000        0x0 NuttX/nuttx/libc/libc.a(lib_tcgetattr.o)
 .data          0x00000000        0x0 NuttX/nuttx/libc/libc.a(lib_tcgetattr.o)
 .bss           0x00000000        0x0 NuttX/nuttx/libc/libc.a(lib_tcgetattr.o)
 .text          0x00000000        0x0 NuttX/nuttx/libc/libc.a(lib_tcsetattr.o)
 .data          0x00000000        0x0 NuttX/nuttx/libc/libc.a(lib_tcsetattr.o)
 .bss           0x00000000        0x0 NuttX/nuttx/libc/libc.a(lib_tcsetattr.o)
 .text          0x00000000        0x0 NuttX/nuttx/fs/libfs.a(fs_ioctl.o)
 .data          0x00000000        0x0 NuttX/nuttx/fs/libfs.a(fs_ioctl.o)
 .bss           0x00000000        0x0 NuttX/nuttx/fs/libfs.a(fs_ioctl.o)
 .text          0x00000000        0x0 NuttX/nuttx/fs/libfs.a(fs_read.o)
 .data          0x00000000        0x0 NuttX/nuttx/fs/libfs.a(fs_read.o)
 .bss           0x00000000        0x0 NuttX/nuttx/fs/libfs.a(fs_read.o)
 .text          0x00000000        0x0 src/drivers/boards/px4io-v2/libdrivers__boards__px4io-v2.a(px4io_timer_config.c.obj)
 .data          0x00000000        0x0 src/drivers/boards/px4io-v2/libdrivers__boards__px4io-v2.a(px4io_timer_config.c.obj)
 .bss           0x00000000        0x0 src/drivers/boards/px4io-v2/libdrivers__boards__px4io-v2.a(px4io_timer_config.c.obj)
 .text          0x00000000        0x0 /home/rablsa/gcc-arm-none-eabi-5_4-2016q2/bin/../lib/gcc/arm-none-eabi/5.4.1/../../../../arm-none-eabi/lib/armv7-m/libm.a(lib_a-sf_cos.o)
 .data          0x00000000        0x0 /home/rablsa/gcc-arm-none-eabi-5_4-2016q2/bin/../lib/gcc/arm-none-eabi/5.4.1/../../../../arm-none-eabi/lib/armv7-m/libm.a(lib_a-sf_cos.o)
 .bss           0x00000000        0x0 /home/rablsa/gcc-arm-none-eabi-5_4-2016q2/bin/../lib/gcc/arm-none-eabi/5.4.1/../../../../arm-none-eabi/lib/armv7-m/libm.a(lib_a-sf_cos.o)
 .text          0x00000000        0x0 /home/rablsa/gcc-arm-none-eabi-5_4-2016q2/bin/../lib/gcc/arm-none-eabi/5.4.1/../../../../arm-none-eabi/lib/armv7-m/libm.a(lib_a-sf_floor.o)
 .data          0x00000000        0x0 /home/rablsa/gcc-arm-none-eabi-5_4-2016q2/bin/../lib/gcc/arm-none-eabi/5.4.1/../../../../arm-none-eabi/lib/armv7-m/libm.a(lib_a-sf_floor.o)
 .bss           0x00000000        0x0 /home/rablsa/gcc-arm-none-eabi-5_4-2016q2/bin/../lib/gcc/arm-none-eabi/5.4.1/../../../../arm-none-eabi/lib/armv7-m/libm.a(lib_a-sf_floor.o)
 .text          0x00000000        0x0 /home/rablsa/gcc-arm-none-eabi-5_4-2016q2/bin/../lib/gcc/arm-none-eabi/5.4.1/../../../../arm-none-eabi/lib/armv7-m/libm.a(lib_a-sf_fmax.o)
 .data          0x00000000        0x0 /home/rablsa/gcc-arm-none-eabi-5_4-2016q2/bin/../lib/gcc/arm-none-eabi/5.4.1/../../../../arm-none-eabi/lib/armv7-m/libm.a(lib_a-sf_fmax.o)
 .bss           0x00000000        0x0 /home/rablsa/gcc-arm-none-eabi-5_4-2016q2/bin/../lib/gcc/arm-none-eabi/5.4.1/../../../../arm-none-eabi/lib/armv7-m/libm.a(lib_a-sf_fmax.o)
 .text          0x00000000        0x0 /home/rablsa/gcc-arm-none-eabi-5_4-2016q2/bin/../lib/gcc/arm-none-eabi/5.4.1/../../../../arm-none-eabi/lib/armv7-m/libm.a(lib_a-sf_fmin.o)
 .data          0x00000000        0x0 /home/rablsa/gcc-arm-none-eabi-5_4-2016q2/bin/../lib/gcc/arm-none-eabi/5.4.1/../../../../arm-none-eabi/lib/armv7-m/libm.a(lib_a-sf_fmin.o)
 .bss           0x00000000        0x0 /home/rablsa/gcc-arm-none-eabi-5_4-2016q2/bin/../lib/gcc/arm-none-eabi/5.4.1/../../../../arm-none-eabi/lib/armv7-m/libm.a(lib_a-sf_fmin.o)
 .text          0x00000000        0x0 /home/rablsa/gcc-arm-none-eabi-5_4-2016q2/bin/../lib/gcc/arm-none-eabi/5.4.1/../../../../arm-none-eabi/lib/armv7-m/libm.a(lib_a-sf_fpclassify.o)
 .data          0x00000000        0x0 /home/rablsa/gcc-arm-none-eabi-5_4-2016q2/bin/../lib/gcc/arm-none-eabi/5.4.1/../../../../arm-none-eabi/lib/armv7-m/libm.a(lib_a-sf_fpclassify.o)
 .bss           0x00000000        0x0 /home/rablsa/gcc-arm-none-eabi-5_4-2016q2/bin/../lib/gcc/arm-none-eabi/5.4.1/../../../../arm-none-eabi/lib/armv7-m/libm.a(lib_a-sf_fpclassify.o)
 .text          0x00000000        0x0 /home/rablsa/gcc-arm-none-eabi-5_4-2016q2/bin/../lib/gcc/arm-none-eabi/5.4.1/../../../../arm-none-eabi/lib/armv7-m/libm.a(lib_a-sf_sin.o)
 .data          0x00000000        0x0 /home/rablsa/gcc-arm-none-eabi-5_4-2016q2/bin/../lib/gcc/arm-none-eabi/5.4.1/../../../../arm-none-eabi/lib/armv7-m/libm.a(lib_a-sf_sin.o)
 .bss           0x00000000        0x0 /home/rablsa/gcc-arm-none-eabi-5_4-2016q2/bin/../lib/gcc/arm-none-eabi/5.4.1/../../../../arm-none-eabi/lib/armv7-m/libm.a(lib_a-sf_sin.o)
 .text          0x00000000        0x0 /home/rablsa/gcc-arm-none-eabi-5_4-2016q2/bin/../lib/gcc/arm-none-eabi/5.4.1/../../../../arm-none-eabi/lib/armv7-m/libm.a(lib_a-wf_sqrt.o)
 .data          0x00000000        0x0 /home/rablsa/gcc-arm-none-eabi-5_4-2016q2/bin/../lib/gcc/arm-none-eabi/5.4.1/../../../../arm-none-eabi/lib/armv7-m/libm.a(lib_a-wf_sqrt.o)
 .bss           0x00000000        0x0 /home/rablsa/gcc-arm-none-eabi-5_4-2016q2/bin/../lib/gcc/arm-none-eabi/5.4.1/../../../../arm-none-eabi/lib/armv7-m/libm.a(lib_a-wf_sqrt.o)
 .text          0x00000000        0x0 /home/rablsa/gcc-arm-none-eabi-5_4-2016q2/bin/../lib/gcc/arm-none-eabi/5.4.1/../../../../arm-none-eabi/lib/armv7-m/libm.a(lib_a-ef_rem_pio2.o)
 .data          0x00000000        0x0 /home/rablsa/gcc-arm-none-eabi-5_4-2016q2/bin/../lib/gcc/arm-none-eabi/5.4.1/../../../../arm-none-eabi/lib/armv7-m/libm.a(lib_a-ef_rem_pio2.o)
 .bss           0x00000000        0x0 /home/rablsa/gcc-arm-none-eabi-5_4-2016q2/bin/../lib/gcc/arm-none-eabi/5.4.1/../../../../arm-none-eabi/lib/armv7-m/libm.a(lib_a-ef_rem_pio2.o)
 .text          0x00000000        0x0 /home/rablsa/gcc-arm-none-eabi-5_4-2016q2/bin/../lib/gcc/arm-none-eabi/5.4.1/../../../../arm-none-eabi/lib/armv7-m/libm.a(lib_a-ef_sqrt.o)
 .data          0x00000000        0x0 /home/rablsa/gcc-arm-none-eabi-5_4-2016q2/bin/../lib/gcc/arm-none-eabi/5.4.1/../../../../arm-none-eabi/lib/armv7-m/libm.a(lib_a-ef_sqrt.o)
 .bss           0x00000000        0x0 /home/rablsa/gcc-arm-none-eabi-5_4-2016q2/bin/../lib/gcc/arm-none-eabi/5.4.1/../../../../arm-none-eabi/lib/armv7-m/libm.a(lib_a-ef_sqrt.o)
 .text          0x00000000        0x0 /home/rablsa/gcc-arm-none-eabi-5_4-2016q2/bin/../lib/gcc/arm-none-eabi/5.4.1/../../../../arm-none-eabi/lib/armv7-m/libm.a(lib_a-kf_cos.o)
 .data          0x00000000        0x0 /home/rablsa/gcc-arm-none-eabi-5_4-2016q2/bin/../lib/gcc/arm-none-eabi/5.4.1/../../../../arm-none-eabi/lib/armv7-m/libm.a(lib_a-kf_cos.o)
 .bss           0x00000000        0x0 /home/rablsa/gcc-arm-none-eabi-5_4-2016q2/bin/../lib/gcc/arm-none-eabi/5.4.1/../../../../arm-none-eabi/lib/armv7-m/libm.a(lib_a-kf_cos.o)
 .text          0x00000000        0x0 /home/rablsa/gcc-arm-none-eabi-5_4-2016q2/bin/../lib/gcc/arm-none-eabi/5.4.1/../../../../arm-none-eabi/lib/armv7-m/libm.a(lib_a-kf_rem_pio2.o)
 .data          0x00000000        0x0 /home/rablsa/gcc-arm-none-eabi-5_4-2016q2/bin/../lib/gcc/arm-none-eabi/5.4.1/../../../../arm-none-eabi/lib/armv7-m/libm.a(lib_a-kf_rem_pio2.o)
 .bss           0x00000000        0x0 /home/rablsa/gcc-arm-none-eabi-5_4-2016q2/bin/../lib/gcc/arm-none-eabi/5.4.1/../../../../arm-none-eabi/lib/armv7-m/libm.a(lib_a-kf_rem_pio2.o)
 .text          0x00000000        0x0 /home/rablsa/gcc-arm-none-eabi-5_4-2016q2/bin/../lib/gcc/arm-none-eabi/5.4.1/../../../../arm-none-eabi/lib/armv7-m/libm.a(lib_a-kf_sin.o)
 .data          0x00000000        0x0 /home/rablsa/gcc-arm-none-eabi-5_4-2016q2/bin/../lib/gcc/arm-none-eabi/5.4.1/../../../../arm-none-eabi/lib/armv7-m/libm.a(lib_a-kf_sin.o)
 .bss           0x00000000        0x0 /home/rablsa/gcc-arm-none-eabi-5_4-2016q2/bin/../lib/gcc/arm-none-eabi/5.4.1/../../../../arm-none-eabi/lib/armv7-m/libm.a(lib_a-kf_sin.o)
 .text          0x00000000        0x0 /home/rablsa/gcc-arm-none-eabi-5_4-2016q2/bin/../lib/gcc/arm-none-eabi/5.4.1/../../../../arm-none-eabi/lib/armv7-m/libm.a(lib_a-s_lib_ver.o)
 .data          0x00000000        0x0 /home/rablsa/gcc-arm-none-eabi-5_4-2016q2/bin/../lib/gcc/arm-none-eabi/5.4.1/../../../../arm-none-eabi/lib/armv7-m/libm.a(lib_a-s_lib_ver.o)
 .bss           0x00000000        0x0 /home/rablsa/gcc-arm-none-eabi-5_4-2016q2/bin/../lib/gcc/arm-none-eabi/5.4.1/../../../../arm-none-eabi/lib/armv7-m/libm.a(lib_a-s_lib_ver.o)
 .text          0x00000000        0x0 /home/rablsa/gcc-arm-none-eabi-5_4-2016q2/bin/../lib/gcc/arm-none-eabi/5.4.1/../../../../arm-none-eabi/lib/armv7-m/libm.a(lib_a-s_matherr.o)
 .data          0x00000000        0x0 /home/rablsa/gcc-arm-none-eabi-5_4-2016q2/bin/../lib/gcc/arm-none-eabi/5.4.1/../../../../arm-none-eabi/lib/armv7-m/libm.a(lib_a-s_matherr.o)
 .bss           0x00000000        0x0 /home/rablsa/gcc-arm-none-eabi-5_4-2016q2/bin/../lib/gcc/arm-none-eabi/5.4.1/../../../../arm-none-eabi/lib/armv7-m/libm.a(lib_a-s_matherr.o)
 .text          0x00000000        0x0 /home/rablsa/gcc-arm-none-eabi-5_4-2016q2/bin/../lib/gcc/arm-none-eabi/5.4.1/../../../../arm-none-eabi/lib/armv7-m/libm.a(lib_a-sf_fabs.o)
 .data          0x00000000        0x0 /home/rablsa/gcc-arm-none-eabi-5_4-2016q2/bin/../lib/gcc/arm-none-eabi/5.4.1/../../../../arm-none-eabi/lib/armv7-m/libm.a(lib_a-sf_fabs.o)
 .bss           0x00000000        0x0 /home/rablsa/gcc-arm-none-eabi-5_4-2016q2/bin/../lib/gcc/arm-none-eabi/5.4.1/../../../../arm-none-eabi/lib/armv7-m/libm.a(lib_a-sf_fabs.o)
 .text          0x00000000        0x0 /home/rablsa/gcc-arm-none-eabi-5_4-2016q2/bin/../lib/gcc/arm-none-eabi/5.4.1/../../../../arm-none-eabi/lib/armv7-m/libm.a(lib_a-sf_scalbn.o)
 .data          0x00000000        0x0 /home/rablsa/gcc-arm-none-eabi-5_4-2016q2/bin/../lib/gcc/arm-none-eabi/5.4.1/../../../../arm-none-eabi/lib/armv7-m/libm.a(lib_a-sf_scalbn.o)
 .bss           0x00000000        0x0 /home/rablsa/gcc-arm-none-eabi-5_4-2016q2/bin/../lib/gcc/arm-none-eabi/5.4.1/../../../../arm-none-eabi/lib/armv7-m/libm.a(lib_a-sf_scalbn.o)
 .text          0x00000000        0x0 /home/rablsa/gcc-arm-none-eabi-5_4-2016q2/bin/../lib/gcc/arm-none-eabi/5.4.1/../../../../arm-none-eabi/lib/armv7-m/libm.a(lib_a-sf_copysign.o)
 .data          0x00000000        0x0 /home/rablsa/gcc-arm-none-eabi-5_4-2016q2/bin/../lib/gcc/arm-none-eabi/5.4.1/../../../../arm-none-eabi/lib/armv7-m/libm.a(lib_a-sf_copysign.o)
 .bss           0x00000000        0x0 /home/rablsa/gcc-arm-none-eabi-5_4-2016q2/bin/../lib/gcc/arm-none-eabi/5.4.1/../../../../arm-none-eabi/lib/armv7-m/libm.a(lib_a-sf_copysign.o)
 .data          0x00000000        0x0 /home/rablsa/gcc-arm-none-eabi-5_4-2016q2/bin/../lib/gcc/arm-none-eabi/5.4.1/armv7-m/libgcc.a(_arm_addsubdf3.o)
 .bss           0x00000000        0x0 /home/rablsa/gcc-arm-none-eabi-5_4-2016q2/bin/../lib/gcc/arm-none-eabi/5.4.1/armv7-m/libgcc.a(_arm_addsubdf3.o)
 .data          0x00000000        0x0 /home/rablsa/gcc-arm-none-eabi-5_4-2016q2/bin/../lib/gcc/arm-none-eabi/5.4.1/armv7-m/libgcc.a(_arm_muldivdf3.o)
 .bss           0x00000000        0x0 /home/rablsa/gcc-arm-none-eabi-5_4-2016q2/bin/../lib/gcc/arm-none-eabi/5.4.1/armv7-m/libgcc.a(_arm_muldivdf3.o)
 .data          0x00000000        0x0 /home/rablsa/gcc-arm-none-eabi-5_4-2016q2/bin/../lib/gcc/arm-none-eabi/5.4.1/armv7-m/libgcc.a(_arm_truncdfsf2.o)
 .bss           0x00000000        0x0 /home/rablsa/gcc-arm-none-eabi-5_4-2016q2/bin/../lib/gcc/arm-none-eabi/5.4.1/armv7-m/libgcc.a(_arm_truncdfsf2.o)
 .data          0x00000000        0x0 /home/rablsa/gcc-arm-none-eabi-5_4-2016q2/bin/../lib/gcc/arm-none-eabi/5.4.1/armv7-m/libgcc.a(_arm_addsubsf3.o)
 .bss           0x00000000        0x0 /home/rablsa/gcc-arm-none-eabi-5_4-2016q2/bin/../lib/gcc/arm-none-eabi/5.4.1/armv7-m/libgcc.a(_arm_addsubsf3.o)
 .data          0x00000000        0x0 /home/rablsa/gcc-arm-none-eabi-5_4-2016q2/bin/../lib/gcc/arm-none-eabi/5.4.1/armv7-m/libgcc.a(_arm_muldivsf3.o)
 .bss           0x00000000        0x0 /home/rablsa/gcc-arm-none-eabi-5_4-2016q2/bin/../lib/gcc/arm-none-eabi/5.4.1/armv7-m/libgcc.a(_arm_muldivsf3.o)
 .data          0x00000000        0x0 /home/rablsa/gcc-arm-none-eabi-5_4-2016q2/bin/../lib/gcc/arm-none-eabi/5.4.1/armv7-m/libgcc.a(_arm_cmpsf2.o)
 .bss           0x00000000        0x0 /home/rablsa/gcc-arm-none-eabi-5_4-2016q2/bin/../lib/gcc/arm-none-eabi/5.4.1/armv7-m/libgcc.a(_arm_cmpsf2.o)
 .data          0x00000000        0x0 /home/rablsa/gcc-arm-none-eabi-5_4-2016q2/bin/../lib/gcc/arm-none-eabi/5.4.1/armv7-m/libgcc.a(_arm_unordsf2.o)
 .bss           0x00000000        0x0 /home/rablsa/gcc-arm-none-eabi-5_4-2016q2/bin/../lib/gcc/arm-none-eabi/5.4.1/armv7-m/libgcc.a(_arm_unordsf2.o)
 .data          0x00000000        0x0 /home/rablsa/gcc-arm-none-eabi-5_4-2016q2/bin/../lib/gcc/arm-none-eabi/5.4.1/armv7-m/libgcc.a(_arm_fixsfsi.o)
 .bss           0x00000000        0x0 /home/rablsa/gcc-arm-none-eabi-5_4-2016q2/bin/../lib/gcc/arm-none-eabi/5.4.1/armv7-m/libgcc.a(_arm_fixsfsi.o)
 .data          0x00000000        0x0 /home/rablsa/gcc-arm-none-eabi-5_4-2016q2/bin/../lib/gcc/arm-none-eabi/5.4.1/armv7-m/libgcc.a(_arm_fixunssfsi.o)
 .bss           0x00000000        0x0 /home/rablsa/gcc-arm-none-eabi-5_4-2016q2/bin/../lib/gcc/arm-none-eabi/5.4.1/armv7-m/libgcc.a(_arm_fixunssfsi.o)
 .data          0x00000000        0x0 /home/rablsa/gcc-arm-none-eabi-5_4-2016q2/bin/../lib/gcc/arm-none-eabi/5.4.1/armv7-m/libgcc.a(_aeabi_uldivmod.o)
 .bss           0x00000000        0x0 /home/rablsa/gcc-arm-none-eabi-5_4-2016q2/bin/../lib/gcc/arm-none-eabi/5.4.1/armv7-m/libgcc.a(_aeabi_uldivmod.o)
 .data          0x00000000        0x0 /home/rablsa/gcc-arm-none-eabi-5_4-2016q2/bin/../lib/gcc/arm-none-eabi/5.4.1/armv7-m/libgcc.a(_udivmoddi4.o)
 .bss           0x00000000        0x0 /home/rablsa/gcc-arm-none-eabi-5_4-2016q2/bin/../lib/gcc/arm-none-eabi/5.4.1/armv7-m/libgcc.a(_udivmoddi4.o)
 .ARM.extab     0x00000000        0x0 /home/rablsa/gcc-arm-none-eabi-5_4-2016q2/bin/../lib/gcc/arm-none-eabi/5.4.1/armv7-m/libgcc.a(_udivmoddi4.o)
 .data          0x00000000        0x0 /home/rablsa/gcc-arm-none-eabi-5_4-2016q2/bin/../lib/gcc/arm-none-eabi/5.4.1/armv7-m/libgcc.a(_dvmd_tls.o)
 .bss           0x00000000        0x0 /home/rablsa/gcc-arm-none-eabi-5_4-2016q2/bin/../lib/gcc/arm-none-eabi/5.4.1/armv7-m/libgcc.a(_dvmd_tls.o)

Memory Configuration

Name             Origin             Length             Attributes
flash            0x08001000         0x0000f000         xr
sram             0x20000000         0x00002000         xrw
*default*        0x00000000         0xffffffff

Linker script and memory map

LOAD src/firmware/nuttx/CMakeFiles/nuttx_px4io-v2_default.elf.dir/__/__/platforms/empty.c.obj
START GROUP
LOAD msg/libuorb_msgs.a
LOAD src/drivers/boards/px4io-v2/libdrivers__boards__px4io-v2.a
LOAD src/drivers/stm32/libdrivers__stm32.a
LOAD src/lib/rc/liblib__rc.a
LOAD src/modules/px4iofirmware/libmodules__px4iofirmware.a
LOAD src/modules/systemlib/mixer/libmodules__systemlib__mixer.a
LOAD src/platforms/common/libplatforms__common.a
LOAD NuttX/apps/libapps.a
LOAD NuttX/nuttx/arch/arm/src/libarch.a
LOAD NuttX/nuttx/binfmt/libbinfmt.a
LOAD NuttX/nuttx/binfmt/libbinfmt.a
LOAD NuttX/nuttx/libc/libc.a
LOAD NuttX/nuttx/configs/libconfigs.a
LOAD NuttX/nuttx/libxx/libcxx.a
LOAD NuttX/nuttx/drivers/libdrivers.a
LOAD NuttX/nuttx/fs/libfs.a
LOAD NuttX/nuttx/mm/libmm.a
LOAD NuttX/nuttx/sched/libsched.a
END GROUP
LOAD /home/rablsa/gcc-arm-none-eabi-5_4-2016q2/bin/../lib/gcc/arm-none-eabi/5.4.1/../../../../arm-none-eabi/lib/armv7-m/libm.a
LOAD /home/rablsa/gcc-arm-none-eabi-5_4-2016q2/bin/../lib/gcc/arm-none-eabi/5.4.1/armv7-m/libgcc.a

.text           0x08001000     0xdcf0
                0x08001000                _stext = ABSOLUTE (.)
 *(.vectors)
 .vectors       0x08001000      0x134 NuttX/nuttx/arch/arm/src/libarch.a(up_vectors.o)
                0x08001000                _vectors
 *(.text .text.*)
 .text.go_os_start
                0x08001134       0x24 NuttX/nuttx/arch/arm/src/libarch.a(stm32_start.o)
 .text.__start  0x08001158       0x58 NuttX/nuttx/arch/arm/src/libarch.a(stm32_start.o)
                0x08001158                __start
 .text.stm32_clockconfig
                0x080011b0       0xe8 NuttX/nuttx/arch/arm/src/libarch.a(stm32_rcc.o)
                0x080011b0                stm32_clockconfig
 .text.stm32_gpioinit
                0x08001298       0x10 NuttX/nuttx/arch/arm/src/libarch.a(stm32_gpio.o)
                0x08001298                stm32_gpioinit
 .text.stm32_configgpio
                0x080012a8       0xd0 NuttX/nuttx/arch/arm/src/libarch.a(stm32_gpio.o)
                0x080012a8                stm32_configgpio
 .text.stm32_unconfiggpio
                0x08001378        0xc NuttX/nuttx/arch/arm/src/libarch.a(stm32_gpio.o)
                0x08001378                stm32_unconfiggpio
 .text.stm32_gpiowrite
                0x08001384       0x2c NuttX/nuttx/arch/arm/src/libarch.a(stm32_gpio.o)
                0x08001384                stm32_gpiowrite
 .text.stm32_gpioread
                0x080013b0       0x2c NuttX/nuttx/arch/arm/src/libarch.a(stm32_gpio.o)
                0x080013b0                stm32_gpioread
 .text.up_lowputc
                0x080013dc       0x18 NuttX/nuttx/arch/arm/src/libarch.a(stm32_lowputc.o)
                0x080013dc                up_lowputc
 .text.stm32_lowsetup
                0x080013f4       0x6c NuttX/nuttx/arch/arm/src/libarch.a(stm32_lowputc.o)
                0x080013f4                stm32_lowsetup
 .text.up_setusartint
                0x08001460       0x26 NuttX/nuttx/arch/arm/src/libarch.a(stm32_serial.o)
 .text.up_restoreusartint
                0x08001486       0x18 NuttX/nuttx/arch/arm/src/libarch.a(stm32_serial.o)
 .text.up_disableusartint
                0x0800149e       0x2e NuttX/nuttx/arch/arm/src/libarch.a(stm32_serial.o)
 .text.up_set_format
                0x080014cc       0x76 NuttX/nuttx/arch/arm/src/libarch.a(stm32_serial.o)
 .text.up_receive
                0x08001542       0x16 NuttX/nuttx/arch/arm/src/libarch.a(stm32_serial.o)
 .text.up_rxint
                0x08001558       0x2e NuttX/nuttx/arch/arm/src/libarch.a(stm32_serial.o)
 .text.up_rxavailable
                0x08001586        0xc NuttX/nuttx/arch/arm/src/libarch.a(stm32_serial.o)
 .text.up_dma_rxint
                0x08001592        0x8 NuttX/nuttx/arch/arm/src/libarch.a(stm32_serial.o)
 .text.up_send  0x0800159a        0x8 NuttX/nuttx/arch/arm/src/libarch.a(stm32_serial.o)
 .text.up_txready
                0x080015a2        0xc NuttX/nuttx/arch/arm/src/libarch.a(stm32_serial.o)
 .text.up_txint
                0x080015ae       0x3a NuttX/nuttx/arch/arm/src/libarch.a(stm32_serial.o)
 .text.up_dma_receive
                0x080015e8       0x28 NuttX/nuttx/arch/arm/src/libarch.a(stm32_serial.o)
 .text.up_ioctl
                0x08001610       0xd4 NuttX/nuttx/arch/arm/src/libarch.a(stm32_serial.o)
 .text.up_detach
                0x080016e4       0x1c NuttX/nuttx/arch/arm/src/libarch.a(stm32_serial.o)
 .text.up_attach
                0x08001700       0x20 NuttX/nuttx/arch/arm/src/libarch.a(stm32_serial.o)
 .text.up_interrupt.isra.0
                0x08001720       0x4e NuttX/nuttx/arch/arm/src/libarch.a(stm32_serial.o)
 *fill*         0x0800176e        0x2 
 .text.up_interrupt_usart1
                0x08001770        0xc NuttX/nuttx/arch/arm/src/libarch.a(stm32_serial.o)
 .text.up_interrupt_usart3
                0x0800177c        0xc NuttX/nuttx/arch/arm/src/libarch.a(stm32_serial.o)
 .text.up_interrupt_usart2
                0x08001788        0xc NuttX/nuttx/arch/arm/src/libarch.a(stm32_serial.o)
 .text.up_dma_rxavailable
                0x08001794       0x18 NuttX/nuttx/arch/arm/src/libarch.a(stm32_serial.o)
 .text.up_dma_rxcallback
                0x080017ac       0x1e NuttX/nuttx/arch/arm/src/libarch.a(stm32_serial.o)
 *fill*         0x080017ca        0x2 
 .text.up_shutdown
                0x080017cc       0x70 NuttX/nuttx/arch/arm/src/libarch.a(stm32_serial.o)
 .text.up_dma_shutdown
                0x0800183c       0x1a NuttX/nuttx/arch/arm/src/libarch.a(stm32_serial.o)
 *fill*         0x08001856        0x2 
 .text.up_setup
                0x08001858       0x98 NuttX/nuttx/arch/arm/src/libarch.a(stm32_serial.o)
 .text.up_dma_setup
                0x080018f0       0x50 NuttX/nuttx/arch/arm/src/libarch.a(stm32_serial.o)
 .text.up_earlyserialinit
                0x08001940       0x34 NuttX/nuttx/arch/arm/src/libarch.a(stm32_serial.o)
                0x08001940                up_earlyserialinit
 .text.up_serialinit
                0x08001974       0x60 NuttX/nuttx/arch/arm/src/libarch.a(stm32_serial.o)
                0x08001974                up_serialinit
 .text.stm32_serial_dma_poll
                0x080019d4       0x34 NuttX/nuttx/arch/arm/src/libarch.a(stm32_serial.o)
                0x080019d4                stm32_serial_dma_poll
 .text.up_putc  0x08001a08       0x34 NuttX/nuttx/arch/arm/src/libarch.a(stm32_serial.o)
                0x08001a08                up_putc
 .text.modifyreg32
                0x08001a3c       0x1e NuttX/nuttx/arch/arm/src/libarch.a(up_modifyreg32.o)
                0x08001a3c                modifyreg32
 .text          0x08001a5a       0x62 NuttX/nuttx/arch/arm/src/libarch.a(up_exception.o)
                0x08001a5a                exception_common
 .text.stm32_irqinfo
                0x08001abc       0x68 NuttX/nuttx/arch/arm/src/libarch.a(stm32_irq.o)
 .text.up_irqinitialize
                0x08001b24       0x84 NuttX/nuttx/arch/arm/src/libarch.a(stm32_irq.o)
                0x08001b24                up_irqinitialize
 .text.up_disable_irq
                0x08001ba8       0x24 NuttX/nuttx/arch/arm/src/libarch.a(stm32_irq.o)
                0x08001ba8                up_disable_irq
 .text.up_enable_irq
                0x08001bcc       0x22 NuttX/nuttx/arch/arm/src/libarch.a(stm32_irq.o)
                0x08001bcc                up_enable_irq
 .text.up_ack_irq
                0x08001bee        0x2 NuttX/nuttx/arch/arm/src/libarch.a(stm32_irq.o)
                0x08001bee                up_ack_irq
 .text.stm32_dmachandisable
                0x08001bf0       0x22 NuttX/nuttx/arch/arm/src/libarch.a(stm32_dma.o)
 *fill*         0x08001c12        0x2 
 .text.stm32_dmainterrupt
                0x08001c14       0x54 NuttX/nuttx/arch/arm/src/libarch.a(stm32_dma.o)
 .text.up_dmainitialize
                0x08001c68       0x3c NuttX/nuttx/arch/arm/src/libarch.a(stm32_dma.o)
                0x08001c68                up_dmainitialize
 .text.stm32_dmachannel
                0x08001ca4       0x30 NuttX/nuttx/arch/arm/src/libarch.a(stm32_dma.o)
                0x08001ca4                stm32_dmachannel
 .text.stm32_dmafree
                0x08001cd4        0x6 NuttX/nuttx/arch/arm/src/libarch.a(stm32_dma.o)
                0x08001cd4                stm32_dmafree
 .text.stm32_dmasetup
                0x08001cda       0x34 NuttX/nuttx/arch/arm/src/libarch.a(stm32_dma.o)
                0x08001cda                stm32_dmasetup
 .text.stm32_dmastart
                0x08001d0e       0x28 NuttX/nuttx/arch/arm/src/libarch.a(stm32_dma.o)
                0x08001d0e                stm32_dmastart
 .text.stm32_dmastop
                0x08001d36        0x4 NuttX/nuttx/arch/arm/src/libarch.a(stm32_dma.o)
                0x08001d36                stm32_dmastop
 .text.stm32_dmaresidual
                0x08001d3a        0x6 NuttX/nuttx/arch/arm/src/libarch.a(stm32_dma.o)
                0x08001d3a                stm32_dmaresidual
 .text.up_taskdump
                0x08001d40       0x30 NuttX/nuttx/arch/arm/src/libarch.a(up_assert.o)
 .text.up_assert
                0x08001d70      0x1c0 NuttX/nuttx/arch/arm/src/libarch.a(up_assert.o)
                0x08001d70                up_assert
 .text.up_doirq
                0x08001f30       0x24 NuttX/nuttx/arch/arm/src/libarch.a(up_doirq.o)
                0x08001f30                up_doirq
 .text.up_hardfault
                0x08001f54       0x34 NuttX/nuttx/arch/arm/src/libarch.a(up_hardfault.o)
                0x08001f54                up_hardfault
 .text.up_svcall
                0x08001f88       0x34 NuttX/nuttx/arch/arm/src/libarch.a(up_svcall.o)
                0x08001f88                up_svcall
 .text.up_check_tcbstack
                0x08001fbc       0x34 NuttX/nuttx/arch/arm/src/libarch.a(up_checkstack.o)
                0x08001fbc                up_check_tcbstack
 .text          0x08001ff0      0x230 NuttX/nuttx/libc/libc.a(arch_memcpy.o)
                0x08002010                memcpy
 .text.sem_init
                0x08002220       0x20 NuttX/nuttx/libc/libc.a(sem_init.o)
                0x08002220                sem_init
 .text.abort    0x08002240        0x8 NuttX/nuttx/libc/libc.a(lib_abort.o)
                0x08002240                abort
 .text.strcpy   0x08002248       0x10 NuttX/nuttx/libc/libc.a(lib_strcpy.o)
                0x08002248                strcpy
 .text.vsyslog  0x08002258       0x24 NuttX/nuttx/libc/libc.a(lib_syslog.o)
                0x08002258                vsyslog
 .text.syslog   0x0800227c       0x1a NuttX/nuttx/libc/libc.a(lib_syslog.o)
                0x0800227c                syslog
 .text.cfgetspeed
                0x08002296        0x4 NuttX/nuttx/libc/libc.a(lib_cfgetspeed.o)
                0x08002296                cfgetspeed
 .text.cfsetspeed
                0x0800229a        0x6 NuttX/nuttx/libc/libc.a(lib_cfsetspeed.o)
                0x0800229a                cfsetspeed
 .text.uart_takesem
                0x080022a0       0x30 NuttX/nuttx/drivers/libdrivers.a(serial.o)
 .text.uart_tcdrain
                0x080022d0       0x8a NuttX/nuttx/drivers/libdrivers.a(serial.o)
 .text.uart_ioctl
                0x0800235a      0x14e NuttX/nuttx/drivers/libdrivers.a(serial.o)
 .text.uart_putxmitchar
                0x080024a8       0x98 NuttX/nuttx/drivers/libdrivers.a(serial.o)
 .text.uart_read
                0x08002540       0xea NuttX/nuttx/drivers/libdrivers.a(serial.o)
 .text.uart_open
                0x0800262a       0x90 NuttX/nuttx/drivers/libdrivers.a(serial.o)
 .text.uart_close
                0x080026ba       0x8e NuttX/nuttx/drivers/libdrivers.a(serial.o)
 .text.uart_write
                0x08002748      0x102 NuttX/nuttx/drivers/libdrivers.a(serial.o)
 *fill*         0x0800284a        0x2 
 .text.uart_register
                0x0800284c       0x70 NuttX/nuttx/drivers/libdrivers.a(serial.o)
                0x0800284c                uart_register
 .text.uart_datareceived
                0x080028bc       0x10 NuttX/nuttx/drivers/libdrivers.a(serial.o)
                0x080028bc                uart_datareceived
 .text.uart_datasent
                0x080028cc       0x10 NuttX/nuttx/drivers/libdrivers.a(serial.o)
                0x080028cc                uart_datasent
 .text.uart_xmitchars
                0x080028dc       0x70 NuttX/nuttx/drivers/libdrivers.a(serial_io.o)
                0x080028dc                uart_xmitchars
 .text.uart_recvchars
                0x0800294c       0x66 NuttX/nuttx/drivers/libdrivers.a(serial_io.o)
                0x0800294c                uart_recvchars
 .text._vsyslog
                0x080029b2       0x26 NuttX/nuttx/drivers/libdrivers.a(vsyslog.o)
                0x080029b2                _vsyslog
 .text.syslogstream_putc
                0x080029d8       0x28 NuttX/nuttx/drivers/libdrivers.a(syslog_stream.o)
 .text.syslogstream_create
                0x08002a00       0x18 NuttX/nuttx/drivers/libdrivers.a(syslog_stream.o)
                0x08002a00                syslogstream_create
 .text.emergstream_putc
                0x08002a18       0x24 NuttX/nuttx/drivers/libdrivers.a(syslog_emergstream.o)
 .text.emergstream
                0x08002a3c       0x18 NuttX/nuttx/drivers/libdrivers.a(syslog_emergstream.o)
                0x08002a3c                emergstream
 .text.syslog_putc
                0x08002a54       0x2c NuttX/nuttx/drivers/libdrivers.a(syslog_putc.o)
                0x08002a54                syslog_putc
 .text.syslog_force
                0x08002a80        0xc NuttX/nuttx/drivers/libdrivers.a(syslog_force.o)
                0x08002a80                syslog_force
 .text.syslog_default_flush
                0x08002a8c        0x4 NuttX/nuttx/drivers/libdrivers.a(syslog_channel.o)
 .text.syslog_channel
                0x08002a90       0x14 NuttX/nuttx/drivers/libdrivers.a(syslog_channel.o)
                0x08002a90                syslog_channel
 .text.register_driver
                0x08002aa4       0x32 NuttX/nuttx/fs/libfs.a(fs_registerdriver.o)
                0x08002aa4                register_driver
 *fill*         0x08002ad6        0x2 
 .text.inode_initialize
                0x08002ad8       0x2c NuttX/nuttx/fs/libfs.a(fs_inode.o)
                0x08002ad8                inode_initialize
 .text.inode_semtake
                0x08002b04       0x48 NuttX/nuttx/fs/libfs.a(fs_inode.o)
                0x08002b04                inode_semtake
 .text.inode_semgive
                0x08002b4c       0x24 NuttX/nuttx/fs/libfs.a(fs_inode.o)
                0x08002b4c                inode_semgive
 .text.inode_alloc
                0x08002b70       0x3c NuttX/nuttx/fs/libfs.a(fs_inodereserve.o)
 .text.inode_reserve
                0x08002bac       0xb0 NuttX/nuttx/fs/libfs.a(fs_inodereserve.o)
                0x08002bac                inode_reserve
 .text.inode_nextname
                0x08002c5c       0x20 NuttX/nuttx/fs/libfs.a(fs_inodesearch.o)
                0x08002c5c                inode_nextname
 .text.inode_search
                0x08002c7c       0xb4 NuttX/nuttx/fs/libfs.a(fs_inodesearch.o)
                0x08002c7c                inode_search
 .text.zalloc   0x08002d30        0xc NuttX/nuttx/mm/libmm.a(umm_zalloc.o)
                0x08002d30                zalloc
 .text.mm_zalloc
                0x08002d3c       0x18 NuttX/nuttx/mm/libmm.a(mm_zalloc.o)
                0x08002d3c                mm_zalloc
 .text.mm_malloc
                0x08002d54       0x92 NuttX/nuttx/mm/libmm.a(mm_malloc.o)
                0x08002d54                mm_malloc
 .text.mm_seminitialize
                0x08002de6       0x18 NuttX/nuttx/mm/libmm.a(mm_sem.o)
                0x08002de6                mm_seminitialize
 .text.mm_trysemaphore
                0x08002dfe       0x32 NuttX/nuttx/mm/libmm.a(mm_sem.o)
                0x08002dfe                mm_trysemaphore
 .text.mm_takesemaphore
                0x08002e30       0x40 NuttX/nuttx/mm/libmm.a(mm_sem.o)
                0x08002e30                mm_takesemaphore
 .text.mm_givesemaphore
                0x08002e70       0x2c NuttX/nuttx/mm/libmm.a(mm_sem.o)
                0x08002e70                mm_givesemaphore
 .text.mm_addfreechunk
                0x08002e9c       0x36 NuttX/nuttx/mm/libmm.a(mm_addfreechunk.o)
                0x08002e9c                mm_addfreechunk
 .text.mm_size2ndx
                0x08002ed2       0x1a NuttX/nuttx/mm/libmm.a(mm_size2ndx.o)
                0x08002ed2                mm_size2ndx
 .text.get_errno_ptr
                0x08002eec       0x24 NuttX/nuttx/sched/libsched.a(errno_getptr.o)
                0x08002eec                get_errno_ptr
 .text.os_start
                0x08002f10      0x14c NuttX/nuttx/sched/libsched.a(os_start.o)
                0x08002f10                os_start
 .text.os_bringup
                0x0800305c       0x34 NuttX/nuttx/sched/libsched.a(os_bringup.o)
                0x0800305c                os_bringup
 .text.irq_attach
                0x08003090       0x4c NuttX/nuttx/sched/libsched.a(irq_attach.o)
                0x08003090                irq_attach
 .text.irq_dispatch
                0x080030dc       0x18 NuttX/nuttx/sched/libsched.a(irq_dispatch.o)
                0x080030dc                irq_dispatch
 .text.irq_unexpected_isr
                0x080030f4       0x18 NuttX/nuttx/sched/libsched.a(irq_unexpectedisr.o)
                0x080030f4                irq_unexpected_isr
 .text.sched_garbage_collection
                0x0800310c       0x30 NuttX/nuttx/sched/libsched.a(sched_garbage.o)
                0x0800310c                sched_garbage_collection
 .text.sched_have_garbage
                0x0800313c       0x10 NuttX/nuttx/sched/libsched.a(sched_garbage.o)
                0x0800313c                sched_have_garbage
 .text.sched_foreach
                0x0800314c       0x30 NuttX/nuttx/sched/libsched.a(sched_foreach.o)
                0x0800314c                sched_foreach
 .text.sched_idletask
                0x0800317c       0x18 NuttX/nuttx/sched/libsched.a(sched_idletask.o)
                0x0800317c                sched_idletask
 .text.sem_wait
                0x08003194       0x84 NuttX/nuttx/sched/libsched.a(sem_wait.o)
                0x08003194                sem_wait
 .text.sem_trywait
                0x08003218       0x50 NuttX/nuttx/sched/libsched.a(sem_trywait.o)
                0x08003218                sem_trywait
 .text.sem_post
                0x08003268       0x68 NuttX/nuttx/sched/libsched.a(sem_post.o)
                0x08003268                sem_post
 .text.sem_reset
                0x080032d0       0x42 NuttX/nuttx/sched/libsched.a(sem_reset.o)
                0x080032d0                sem_reset
 *fill*         0x08003312        0x2 
 .text.thread_create
                0x08003314       0xac NuttX/nuttx/sched/libsched.a(task_create.o)
 .text.task_create
                0x080033c0       0x16 NuttX/nuttx/sched/libsched.a(task_create.o)
                0x080033c0                task_create
 *fill*         0x080033d6        0x2 
 .text.task_schedsetup
                0x080033d8       0xb4 NuttX/nuttx/sched/libsched.a(task_setup.o)
                0x080033d8                task_schedsetup
 .text.task_argsetup
                0x0800348c       0xd0 NuttX/nuttx/sched/libsched.a(task_setup.o)
                0x0800348c                task_argsetup
 .text.task_activate
                0x0800355c       0x1a NuttX/nuttx/sched/libsched.a(task_activate.o)
                0x0800355c                task_activate
 *fill*         0x08003576        0x2 
 .text.task_start
                0x08003578       0x2c NuttX/nuttx/sched/libsched.a(task_start.o)
                0x08003578                task_start
 .text.getpid   0x080035a4       0x10 NuttX/nuttx/sched/libsched.a(task_getpid.o)
                0x080035a4                getpid
 .text.exit     0x080035b4       0x1c NuttX/nuttx/sched/libsched.a(exit.o)
                0x080035b4                exit
 .text.group_allocate
                0x080035d0       0x18 NuttX/nuttx/sched/libsched.a(group_create.o)
                0x080035d0                group_allocate
 .text.group_initialize
                0x080035e8        0xa NuttX/nuttx/sched/libsched.a(group_create.o)
                0x080035e8                group_initialize
 *fill*         0x080035f2        0x2 
 .text.group_setupidlefiles
                0x080035f4       0x38 NuttX/nuttx/sched/libsched.a(group_setupidlefiles.o)
                0x080035f4                group_setupidlefiles
 .text.group_setuptaskfiles
                0x0800362c        0xe NuttX/nuttx/sched/libsched.a(group_setuptaskfiles.o)
                0x0800362c                group_setuptaskfiles
 *fill*         0x0800363a        0x2 
 .text.irq_initialize
                0x0800363c       0x1c NuttX/nuttx/sched/libsched.a(irq_initialize.o)
                0x0800363c                irq_initialize
 .text.sched_releasetcb
                0x08003658       0x40 NuttX/nuttx/sched/libsched.a(sched_releasetcb.o)
                0x08003658                sched_releasetcb
 .text.sched_lock
                0x08003698       0x1c NuttX/nuttx/sched/libsched.a(sched_lock.o)
                0x08003698                sched_lock
 .text.sched_unlock
                0x080036b4       0x50 NuttX/nuttx/sched/libsched.a(sched_unlock.o)
                0x080036b4                sched_unlock
 .text.task_exithook
                0x08003704       0x1e NuttX/nuttx/sched/libsched.a(task_exithook.o)
                0x08003704                task_exithook
 .text.task_recover
                0x08003722       0x12 NuttX/nuttx/sched/libsched.a(task_recover.o)
                0x08003722                task_recover
 .text.wd_recover
                0x08003734       0x28 NuttX/nuttx/sched/libsched.a(wd_recover.o)
                0x08003734                wd_recover
 .text.group_leave
                0x0800375c       0x26 NuttX/nuttx/sched/libsched.a(group_leave.o)
                0x0800375c                group_leave
 *fill*         0x08003782        0x2 
 .text.sched_ufree
                0x08003784       0x40 NuttX/nuttx/sched/libsched.a(sched_free.o)
                0x08003784                sched_ufree
 .text.sem_recover
                0x080037c4       0x26 NuttX/nuttx/sched/libsched.a(sem_recover.o)
                0x080037c4                sem_recover
 *fill*         0x080037ea        0x2 
 .text.wd_cancel
                0x080037ec       0x70 NuttX/nuttx/sched/libsched.a(wd_cancel.o)
                0x080037ec                wd_cancel
 .text.wd_delete
                0x0800385c       0x54 NuttX/nuttx/sched/libsched.a(wd_delete.o)
                0x0800385c                wd_delete
 .text.wd_initialize
                0x080038b0       0x3c NuttX/nuttx/sched/libsched.a(wd_initialize.o)
                0x080038b0                wd_initialize
 .text.stm32_boardinitialize
                0x080038ec      0x110 src/drivers/boards/px4io-v2/libdrivers__boards__px4io-v2.a(px4io_init.c.obj)
                0x080038ec                stm32_boardinitialize
 .text.isr_debug
                0x080039fc       0x4c src/modules/px4iofirmware/libmodules__px4iofirmware.a(px4io.c.obj)
                0x080039fc                isr_debug
 .text.schedule_reboot
                0x08003a48       0x1c src/modules/px4iofirmware/libmodules__px4iofirmware.a(px4io.c.obj)
                0x08003a48                schedule_reboot
 .text.user_start
                0x08003a64      0x414 src/modules/px4iofirmware/libmodules__px4iofirmware.a(px4io.c.obj)
                0x08003a64                user_start
 .text.pwm_configure_rates
                0x08003e78       0x7c src/modules/px4iofirmware/libmodules__px4iofirmware.a(registers.c.obj)
 .text.registers_set
                0x08003ef4      0x54c src/modules/px4iofirmware/libmodules__px4iofirmware.a(registers.c.obj)
                0x08003ef4                registers_set
 .text.registers_get
                0x08004440      0x1a0 src/modules/px4iofirmware/libmodules__px4iofirmware.a(registers.c.obj)
                0x08004440                registers_get
 .text.safety_check_button
                0x080045e0      0x110 src/modules/px4iofirmware/libmodules__px4iofirmware.a(safety.c.obj)
 .text.failsafe_blink
                0x080046f0       0x38 src/modules/px4iofirmware/libmodules__px4iofirmware.a(safety.c.obj)
 .text.safety_init
                0x08004728       0x30 src/modules/px4iofirmware/libmodules__px4iofirmware.a(safety.c.obj)
                0x08004728                safety_init
 .text.failsafe_led_init
                0x08004758       0x30 src/modules/px4iofirmware/libmodules__px4iofirmware.a(safety.c.obj)
                0x08004758                failsafe_led_init
 .text.dma_reset
                0x08004788       0x6c src/modules/px4iofirmware/libmodules__px4iofirmware.a(serial.c.obj)
 .text.rx_dma_callback
                0x080047f4      0x158 src/modules/px4iofirmware/libmodules__px4iofirmware.a(serial.c.obj)
 .text.serial_interrupt
                0x0800494c       0xd0 src/modules/px4iofirmware/libmodules__px4iofirmware.a(serial.c.obj)
 .text.interface_init
                0x08004a1c       0xcc src/modules/px4iofirmware/libmodules__px4iofirmware.a(serial.c.obj)
                0x08004a1c                interface_init
 .text.perf_count
                0x08004ae8       0xe0 src/modules/px4iofirmware/libmodules__px4iofirmware.a(perf_counter.c.obj)
                0x08004ae8                perf_count
 .text.perf_begin
                0x08004bc8       0x16 src/modules/px4iofirmware/libmodules__px4iofirmware.a(perf_counter.c.obj)
                0x08004bc8                perf_begin
 *fill*         0x08004bde        0x2 
 .text.perf_end
                0x08004be0       0xb4 src/modules/px4iofirmware/libmodules__px4iofirmware.a(perf_counter.c.obj)
                0x08004be0                perf_end
 .text.pwm_limit_init
                0x08004c94        0xe src/modules/px4iofirmware/libmodules__px4iofirmware.a(pwm_limit.c.obj)
                0x08004c94                pwm_limit_init
 *fill*         0x08004ca2        0x2 
 .text.pwm_limit_calc
                0x08004ca4      0x218 src/modules/px4iofirmware/libmodules__px4iofirmware.a(pwm_limit.c.obj)
                0x08004ca4                pwm_limit_calc
 .text.adc_init
                0x08004ebc       0x88 src/modules/px4iofirmware/libmodules__px4iofirmware.a(adc.c.obj)
                0x08004ebc                adc_init
 .text.adc_measure
                0x08004f44       0x78 src/modules/px4iofirmware/libmodules__px4iofirmware.a(adc.c.obj)
                0x08004f44                adc_measure
 .text.controls_init
                0x08004fbc       0x90 src/modules/px4iofirmware/libmodules__px4iofirmware.a(controls.c.obj)
                0x08004fbc                controls_init
 .text.controls_tick
                0x0800504c      0x80c src/modules/px4iofirmware/libmodules__px4iofirmware.a(controls.c.obj)
                0x0800504c                controls_tick
 .text._ZL14mixer_callbackjhhRf
                0x08005858      0x1b4 src/modules/px4iofirmware/libmodules__px4iofirmware.a(mixer.cpp.obj)
 .text.mixer_handle_text_create_mixer
                0x08005a0c       0x94 src/modules/px4iofirmware/libmodules__px4iofirmware.a(mixer.cpp.obj)
                0x08005a0c                mixer_handle_text_create_mixer
 .text.mixer_handle_text
                0x08005aa0      0x138 src/modules/px4iofirmware/libmodules__px4iofirmware.a(mixer.cpp.obj)
                0x08005aa0                mixer_handle_text
 .text.startup._GLOBAL__sub_I_mixer_tick
                0x08005bd8       0x2c src/modules/px4iofirmware/libmodules__px4iofirmware.a(mixer.cpp.obj)
 .text._ZL20mixer_mix_threadsafePfPVt.constprop.3
                0x08005c04       0x40 src/modules/px4iofirmware/libmodules__px4iofirmware.a(mixer.cpp.obj)
 .text.mixer_set_failsafe
                0x08005c44      0x104 src/modules/px4iofirmware/libmodules__px4iofirmware.a(mixer.cpp.obj)
                0x08005c44                mixer_set_failsafe
 .text.mixer_tick
                0x08005d48      0x664 src/modules/px4iofirmware/libmodules__px4iofirmware.a(mixer.cpp.obj)
                0x08005d48                mixer_tick
 .text._ZN5Mixer22set_max_delta_out_onceEf
                0x080063ac        0x2 src/modules/systemlib/mixer/libmodules__systemlib__mixer.a(mixer_group.cpp.obj)
                0x080063ac                Mixer::set_max_delta_out_once(float)
 .text._ZN5Mixer17set_thrust_factorEf
                0x080063ae        0x2 src/modules/systemlib/mixer/libmodules__systemlib__mixer.a(mixer_group.cpp.obj)
                0x080063ae                Mixer::set_thrust_factor(float)
 .text._ZN10MixerGroup8set_trimEf
                0x080063b0        0x4 src/modules/systemlib/mixer/libmodules__systemlib__mixer.a(mixer_group.cpp.obj)
                0x080063b0                MixerGroup::set_trim(float)
 .text._ZN10MixerGroup3mixEPfj
                0x080063b4       0x28 src/modules/systemlib/mixer/libmodules__systemlib__mixer.a(mixer_group.cpp.obj)
                0x080063b4                MixerGroup::mix(float*, unsigned int)
 .text._ZN10MixerGroup17set_thrust_factorEf
                0x080063dc       0x18 src/modules/systemlib/mixer/libmodules__systemlib__mixer.a(mixer_group.cpp.obj)
                0x080063dc                MixerGroup::set_thrust_factor(float)
 .text._ZN10MixerGroup21get_saturation_statusEv
                0x080063f4       0x1c src/modules/systemlib/mixer/libmodules__systemlib__mixer.a(mixer_group.cpp.obj)
                0x080063f4                MixerGroup::get_saturation_status()
 .text._ZN10MixerGroup15groups_requiredERj
                0x08006410       0x18 src/modules/systemlib/mixer/libmodules__systemlib__mixer.a(mixer_group.cpp.obj)
                0x08006410                MixerGroup::groups_required(unsigned int&)
 .text._ZN10MixerGroup22set_max_delta_out_onceEf
                0x08006428       0x18 src/modules/systemlib/mixer/libmodules__systemlib__mixer.a(mixer_group.cpp.obj)
                0x08006428                MixerGroup::set_max_delta_out_once(float)
 .text._ZN10MixerGroupC2EPFijhhRfEj
                0x08006440       0x18 src/modules/systemlib/mixer/libmodules__systemlib__mixer.a(mixer_group.cpp.obj)
                0x08006440                MixerGroup::MixerGroup(int (*)(unsigned int, unsigned char, unsigned char, float&), unsigned int)
                0x08006440                MixerGroup::MixerGroup(int (*)(unsigned int, unsigned char, unsigned char, float&), unsigned int)
 .text._ZN10MixerGroup9add_mixerEP5Mixer
                0x08006458       0x14 src/modules/systemlib/mixer/libmodules__systemlib__mixer.a(mixer_group.cpp.obj)
                0x08006458                MixerGroup::add_mixer(Mixer*)
 .text._ZN10MixerGroup5resetEv
                0x0800646c       0x1a src/modules/systemlib/mixer/libmodules__systemlib__mixer.a(mixer_group.cpp.obj)
                0x0800646c                MixerGroup::reset()
 *fill*         0x08006486        0x2 
 .text._ZN10MixerGroupD2Ev
                0x08006488       0x14 src/modules/systemlib/mixer/libmodules__systemlib__mixer.a(mixer_group.cpp.obj)
                0x08006488                MixerGroup::~MixerGroup()
                0x08006488                MixerGroup::~MixerGroup()
 .text._ZN10MixerGroupD0Ev
                0x0800649c       0x12 src/modules/systemlib/mixer/libmodules__systemlib__mixer.a(mixer_group.cpp.obj)
                0x0800649c                MixerGroup::~MixerGroup()
 *fill*         0x080064ae        0x2 
 .text._ZN10MixerGroup9set_trimsEPsj
                0x080064b0       0x5c src/modules/systemlib/mixer/libmodules__systemlib__mixer.a(mixer_group.cpp.obj)
                0x080064b0                MixerGroup::set_trims(short*, unsigned int)
 .text._ZN10MixerGroup13load_from_bufEPKcRj
                0x0800650c       0x80 src/modules/systemlib/mixer/libmodules__systemlib__mixer.a(mixer_group.cpp.obj)
                0x0800650c                MixerGroup::load_from_buf(char const*, unsigned int&)
 .text._ZN15HelicopterMixer21get_saturation_statusEv
                0x0800658c        0x4 src/modules/systemlib/mixer/libmodules__systemlib__mixer.a(mixer_helicopter.cpp.obj)
                0x0800658c                HelicopterMixer::get_saturation_status()
 .text._ZN15HelicopterMixer8set_trimEf
                0x08006590        0x4 src/modules/systemlib/mixer/libmodules__systemlib__mixer.a(mixer_helicopter.cpp.obj)
                0x08006590                HelicopterMixer::set_trim(float)
 .text._ZN15HelicopterMixerD2Ev
                0x08006594        0x2 src/modules/systemlib/mixer/libmodules__systemlib__mixer.a(mixer_helicopter.cpp.obj)
                0x08006594                HelicopterMixer::~HelicopterMixer()
                0x08006594                HelicopterMixer::~HelicopterMixer()
 .text._ZN15HelicopterMixer15groups_requiredERj
                0x08006596        0xa src/modules/systemlib/mixer/libmodules__systemlib__mixer.a(mixer_helicopter.cpp.obj)
                0x08006596                HelicopterMixer::groups_required(unsigned int&)
 .text._ZN15HelicopterMixerD0Ev
                0x080065a0        0xc src/modules/systemlib/mixer/libmodules__systemlib__mixer.a(mixer_helicopter.cpp.obj)
                0x080065a0                HelicopterMixer::~HelicopterMixer()
 .text._ZN15HelicopterMixer3mixEPfj
                0x080065ac      0x1c8 src/modules/systemlib/mixer/libmodules__systemlib__mixer.a(mixer_helicopter.cpp.obj)
                0x080065ac                HelicopterMixer::mix(float*, unsigned int)
 .text._ZN15HelicopterMixerC2EPFijhhRfEjP12mixer_heli_s
                0x08006774       0x24 src/modules/systemlib/mixer/libmodules__systemlib__mixer.a(mixer_helicopter.cpp.obj)
                0x08006774                HelicopterMixer::HelicopterMixer(int (*)(unsigned int, unsigned char, unsigned char, float&), unsigned int, mixer_heli_s*)
                0x08006774                HelicopterMixer::HelicopterMixer(int (*)(unsigned int, unsigned char, unsigned char, float&), unsigned int, mixer_heli_s*)
 .text._ZN15HelicopterMixer9from_textEPFijhhRfEjPKcRj
                0x08006798      0x20c src/modules/systemlib/mixer/libmodules__systemlib__mixer.a(mixer_helicopter.cpp.obj)
                0x08006798                HelicopterMixer::from_text(int (*)(unsigned int, unsigned char, unsigned char, float&), unsigned int, char const*, unsigned int&)
 .text._ZN15MultirotorMixer22set_max_delta_out_onceEf
                0x080069a4        0x4 src/modules/systemlib/mixer/libmodules__systemlib__mixer.a(mixer_multirotor.cpp.obj)
                0x080069a4                MultirotorMixer::set_max_delta_out_once(float)
 .text._ZN15MultirotorMixer8set_trimEf
                0x080069a8        0x4 src/modules/systemlib/mixer/libmodules__systemlib__mixer.a(mixer_multirotor.cpp.obj)
                0x080069a8                MultirotorMixer::set_trim(float)
 .text._ZN15MultirotorMixer17set_thrust_factorEf
                0x080069ac        0x4 src/modules/systemlib/mixer/libmodules__systemlib__mixer.a(mixer_multirotor.cpp.obj)
                0x080069ac                MultirotorMixer::set_thrust_factor(float)
 .text._ZN15MultirotorMixer15groups_requiredERj
                0x080069b0        0xa src/modules/systemlib/mixer/libmodules__systemlib__mixer.a(mixer_multirotor.cpp.obj)
                0x080069b0                MultirotorMixer::groups_required(unsigned int&)
 .text._ZN15MultirotorMixer21get_saturation_statusEv
                0x080069ba        0x4 src/modules/systemlib/mixer/libmodules__systemlib__mixer.a(mixer_multirotor.cpp.obj)
                0x080069ba                MultirotorMixer::get_saturation_status()
 *fill*         0x080069be        0x2 
 .text._ZN15MultirotorMixerD2Ev
                0x080069c0       0x18 src/modules/systemlib/mixer/libmodules__systemlib__mixer.a(mixer_multirotor.cpp.obj)
                0x080069c0                MultirotorMixer::~MultirotorMixer()
                0x080069c0                MultirotorMixer::~MultirotorMixer()
 .text._ZN15MultirotorMixerD0Ev
                0x080069d8       0x12 src/modules/systemlib/mixer/libmodules__systemlib__mixer.a(mixer_multirotor.cpp.obj)
                0x080069d8                MultirotorMixer::~MultirotorMixer()
 *fill*         0x080069ea        0x2 
 .text._ZN15MultirotorMixerC2EPFijhhRfEj18MultirotorGeometryffff
                0x080069ec       0x7c src/modules/systemlib/mixer/libmodules__systemlib__mixer.a(mixer_multirotor.cpp.obj)
                0x080069ec                MultirotorMixer::MultirotorMixer(int (*)(unsigned int, unsigned char, unsigned char, float&), unsigned int, MultirotorGeometry, float, float, float, float)
                0x080069ec                MultirotorMixer::MultirotorMixer(int (*)(unsigned int, unsigned char, unsigned char, float&), unsigned int, MultirotorGeometry, float, float, float, float)
 .text._ZN15MultirotorMixer9from_textEPFijhhRfEjPKcRj
                0x08006a68      0x208 src/modules/systemlib/mixer/libmodules__systemlib__mixer.a(mixer_multirotor.cpp.obj)
                0x08006a68                MultirotorMixer::from_text(int (*)(unsigned int, unsigned char, unsigned char, float&), unsigned int, char const*, unsigned int&)
 .text._ZN15MultirotorMixer24update_saturation_statusEjbb
                0x08006c70      0x15a src/modules/systemlib/mixer/libmodules__systemlib__mixer.a(mixer_multirotor.cpp.obj)
                0x08006c70                MultirotorMixer::update_saturation_status(unsigned int, bool, bool)
 *fill*         0x08006dca        0x2 
 .text._ZN15MultirotorMixer3mixEPfj
                0x08006dcc      0x750 src/modules/systemlib/mixer/libmodules__systemlib__mixer.a(mixer_multirotor.cpp.obj)
                0x08006dcc                MultirotorMixer::mix(float*, unsigned int)
 .text._ZN11SimpleMixer8set_trimEf
                0x0800751c        0x8 src/modules/systemlib/mixer/libmodules__systemlib__mixer.a(mixer_simple.cpp.obj)
                0x0800751c                SimpleMixer::set_trim(float)
 .text._ZN11SimpleMixer21get_saturation_statusEv
                0x08007524        0x4 src/modules/systemlib/mixer/libmodules__systemlib__mixer.a(mixer_simple.cpp.obj)
                0x08007524                SimpleMixer::get_saturation_status()
 .text._ZN11SimpleMixer15groups_requiredERj
                0x08007528       0x26 src/modules/systemlib/mixer/libmodules__systemlib__mixer.a(mixer_simple.cpp.obj)
                0x08007528                SimpleMixer::groups_required(unsigned int&)
 *fill*         0x0800754e        0x2 
 .text._ZN11SimpleMixerD2Ev
                0x08007550       0x18 src/modules/systemlib/mixer/libmodules__systemlib__mixer.a(mixer_simple.cpp.obj)
                0x08007550                SimpleMixer::~SimpleMixer()
                0x08007550                SimpleMixer::~SimpleMixer()
 .text._ZN11SimpleMixerD0Ev
                0x08007568       0x12 src/modules/systemlib/mixer/libmodules__systemlib__mixer.a(mixer_simple.cpp.obj)
                0x08007568                SimpleMixer::~SimpleMixer()
 .text._ZN11SimpleMixer3mixEPfj
                0x0800757a       0x68 src/modules/systemlib/mixer/libmodules__systemlib__mixer.a(mixer_simple.cpp.obj)
                0x0800757a                SimpleMixer::mix(float*, unsigned int)
 *fill*         0x080075e2        0x2 
 .text._ZN11SimpleMixer19parse_output_scalerEPKcRjR14mixer_scaler_s
                0x080075e4       0xa4 src/modules/systemlib/mixer/libmodules__systemlib__mixer.a(mixer_simple.cpp.obj)
                0x080075e4                SimpleMixer::parse_output_scaler(char const*, unsigned int&, mixer_scaler_s&)
 .text._ZN11SimpleMixer20parse_control_scalerEPKcRjR14mixer_scaler_sRhS5_
                0x08007688       0xac src/modules/systemlib/mixer/libmodules__systemlib__mixer.a(mixer_simple.cpp.obj)
                0x08007688                SimpleMixer::parse_control_scaler(char const*, unsigned int&, mixer_scaler_s&, unsigned char&, unsigned char&)
 .text._ZN11SimpleMixer9from_textEPFijhhRfEjPKcRj
                0x08007734       0xc4 src/modules/systemlib/mixer/libmodules__systemlib__mixer.a(mixer_simple.cpp.obj)
                0x08007734                SimpleMixer::from_text(int (*)(unsigned int, unsigned char, unsigned char, float&), unsigned int, char const*, unsigned int&)
 .text._ZN9NullMixerD2Ev
                0x080077f8        0x2 src/modules/systemlib/mixer/libmodules__systemlib__mixer.a(mixer.cpp.obj)
                0x080077f8                NullMixer::~NullMixer()
                0x080077f8                NullMixer::~NullMixer()
 .text._ZN9NullMixer10set_offsetEf
                0x080077fa        0x2 src/modules/systemlib/mixer/libmodules__systemlib__mixer.a(mixer.cpp.obj)
                0x080077fa                NullMixer::set_offset(float)
 .text._ZN9NullMixer8set_trimEf
                0x080077fc        0x4 src/modules/systemlib/mixer/libmodules__systemlib__mixer.a(mixer.cpp.obj)
                0x080077fc                NullMixer::set_trim(float)
 .text._ZN9NullMixer3mixEPfj
                0x08007800        0xe src/modules/systemlib/mixer/libmodules__systemlib__mixer.a(mixer.cpp.obj)
                0x08007800                NullMixer::mix(float*, unsigned int)
 .text._ZN9NullMixer21get_saturation_statusEv
                0x0800780e        0x4 src/modules/systemlib/mixer/libmodules__systemlib__mixer.a(mixer.cpp.obj)
                0x0800780e                NullMixer::get_saturation_status()
 .text._ZN9NullMixer15groups_requiredERj
                0x08007812        0x2 src/modules/systemlib/mixer/libmodules__systemlib__mixer.a(mixer.cpp.obj)
                0x08007812                NullMixer::groups_required(unsigned int&)
 .text._ZN9NullMixerD0Ev
                0x08007814        0xc src/modules/systemlib/mixer/libmodules__systemlib__mixer.a(mixer.cpp.obj)
                0x08007814                NullMixer::~NullMixer()
 .text._ZN5MixerC2EPFijhhRfEj
                0x08007820       0x14 src/modules/systemlib/mixer/libmodules__systemlib__mixer.a(mixer.cpp.obj)
                0x08007820                Mixer::Mixer(int (*)(unsigned int, unsigned char, unsigned char, float&), unsigned int)
                0x08007820                Mixer::Mixer(int (*)(unsigned int, unsigned char, unsigned char, float&), unsigned int)
 .text._ZN5Mixer11get_controlEhh
                0x08007834       0x10 src/modules/systemlib/mixer/libmodules__systemlib__mixer.a(mixer.cpp.obj)
                0x08007834                Mixer::get_control(unsigned char, unsigned char)
 .text._ZN5Mixer5scaleERK14mixer_scaler_sf
                0x08007844       0x44 src/modules/systemlib/mixer/libmodules__systemlib__mixer.a(mixer.cpp.obj)
                0x08007844                Mixer::scale(mixer_scaler_s const&, float)
 .text._ZN5Mixer7findtagEPKcRjc
                0x08007888       0x26 src/modules/systemlib/mixer/libmodules__systemlib__mixer.a(mixer.cpp.obj)
                0x08007888                Mixer::findtag(char const*, unsigned int&, char)
 .text._ZN5Mixer8skiplineEPKcRj
                0x080078ae       0x2a src/modules/systemlib/mixer/libmodules__systemlib__mixer.a(mixer.cpp.obj)
                0x080078ae                Mixer::skipline(char const*, unsigned int&)
 .text._ZN5Mixer18string_well_formedEPKcRj
                0x080078d8       0x20 src/modules/systemlib/mixer/libmodules__systemlib__mixer.a(mixer.cpp.obj)
                0x080078d8                Mixer::string_well_formed(char const*, unsigned int&)
 .text._ZN9NullMixerC2Ev
                0x080078f8       0x14 src/modules/systemlib/mixer/libmodules__systemlib__mixer.a(mixer.cpp.obj)
                0x080078f8                NullMixer::NullMixer()
                0x080078f8                NullMixer::NullMixer()
 .text._ZN9NullMixer9from_textEPKcRj
                0x0800790c       0x3a src/modules/systemlib/mixer/libmodules__systemlib__mixer.a(mixer.cpp.obj)
                0x0800790c                NullMixer::from_text(char const*, unsigned int&)
 *fill*         0x08007946        0x2 
 .text.up_cxxinitialize
                0x08007948       0x30 NuttX/apps/libapps.a(gnu_cxxinitialize.o)
                0x08007948                up_cxxinitialize
 .text.up_allocate_heap
                0x08007978       0x14 NuttX/nuttx/arch/arm/src/libarch.a(stm32_allocateheap.o)
                0x08007978                up_allocate_heap
 .text.up_idle  0x0800798c        0x2 NuttX/nuttx/arch/arm/src/libarch.a(stm32_idle.o)
                0x0800798c                up_idle
 *fill*         0x0800798e        0x2 
 .text.up_block_task
                0x08007990       0x74 NuttX/nuttx/arch/arm/src/libarch.a(up_blocktask.o)
                0x08007990                up_block_task
 .text.up_copyfullstate
                0x08007a04       0x18 NuttX/nuttx/arch/arm/src/libarch.a(up_copyfullstate.o)
                0x08007a04                up_copyfullstate
 .text.up_stack_color
                0x08007a1c       0x28 NuttX/nuttx/arch/arm/src/libarch.a(up_createstack.o)
                0x08007a1c                up_stack_color
 .text.up_create_stack
                0x08007a44       0x46 NuttX/nuttx/arch/arm/src/libarch.a(up_createstack.o)
                0x08007a44                up_create_stack
 .text.up_mdelay
                0x08007a8a       0x2a NuttX/nuttx/arch/arm/src/libarch.a(up_mdelay.o)
                0x08007a8a                up_mdelay
 .text.up_udelay
                0x08007ab4       0x72 NuttX/nuttx/arch/arm/src/libarch.a(up_udelay.o)
                0x08007ab4                up_udelay
 *fill*         0x08007b26        0x2 
 .text._exit    0x08007b28       0x20 NuttX/nuttx/arch/arm/src/libarch.a(up_exit.o)
                0x08007b28                _exit
 .text.up_initialize
                0x08007b48       0x30 NuttX/nuttx/arch/arm/src/libarch.a(up_initialize.o)
                0x08007b48                up_initialize
 .text.up_initial_state
                0x08007b78       0x2e NuttX/nuttx/arch/arm/src/libarch.a(up_initialstate.o)
                0x08007b78                up_initial_state
 *fill*         0x08007ba6        0x2 
 .text.up_interrupt_context
                0x08007ba8       0x10 NuttX/nuttx/arch/arm/src/libarch.a(up_interruptcontext.o)
                0x08007ba8                up_interrupt_context
 .text.up_release_pending
                0x08007bb8       0x38 NuttX/nuttx/arch/arm/src/libarch.a(up_releasepending.o)
                0x08007bb8                up_release_pending
 .text.up_release_stack
                0x08007bf0       0x16 NuttX/nuttx/arch/arm/src/libarch.a(up_releasestack.o)
                0x08007bf0                up_release_stack
 .text.up_stack_frame
                0x08007c06       0x26 NuttX/nuttx/arch/arm/src/libarch.a(up_stackframe.o)
                0x08007c06                up_stack_frame
 .text.up_systemreset
                0x08007c2c       0x1c NuttX/nuttx/arch/arm/src/libarch.a(up_systemreset.o)
                0x08007c2c                up_systemreset
 .text.up_unblock_task
                0x08007c48       0x54 NuttX/nuttx/arch/arm/src/libarch.a(up_unblocktask.o)
                0x08007c48                up_unblock_task
 .text          0x08007c9c        0xa NuttX/nuttx/arch/arm/src/libarch.a(up_fullcontextrestore.o)
                0x08007c9c                up_fullcontextrestore
 .text          0x08007ca6        0xc NuttX/nuttx/arch/arm/src/libarch.a(up_switchcontext.o)
                0x08007ca6                up_switchcontext
 .text.stm32_timerisr
                0x08007cb2        0xa NuttX/nuttx/arch/arm/src/libarch.a(stm32_timerisr.o)
 .text.arm_timer_initialize
                0x08007cbc       0x44 NuttX/nuttx/arch/arm/src/libarch.a(stm32_timerisr.o)
                0x08007cbc                arm_timer_initialize
 .text.crc32part
                0x08007d00       0x24 NuttX/nuttx/libc/libc.a(lib_crc32.o)
                0x08007d00                crc32part
 .text.sq_addlast
                0x08007d24       0x14 NuttX/nuttx/libc/libc.a(sq_addlast.o)
                0x08007d24                sq_addlast
 .text.sq_addfirst
                0x08007d38        0xe NuttX/nuttx/libc/libc.a(sq_addfirst.o)
                0x08007d38                sq_addfirst
 .text.sq_rem   0x08007d46       0x2c NuttX/nuttx/libc/libc.a(sq_rem.o)
                0x08007d46                sq_rem
 .text.sq_remfirst
                0x08007d72       0x14 NuttX/nuttx/libc/libc.a(sq_remfirst.o)
                0x08007d72                sq_remfirst
 .text.sq_remafter
                0x08007d86       0x22 NuttX/nuttx/libc/libc.a(sq_remafter.o)
                0x08007d86                sq_remafter
 .text.dq_addfirst
                0x08007da8       0x18 NuttX/nuttx/libc/libc.a(dq_addfirst.o)
                0x08007da8                dq_addfirst
 .text.dq_rem   0x08007dc0       0x1c NuttX/nuttx/libc/libc.a(dq_rem.o)
                0x08007dc0                dq_rem
 .text.sem_setprotocol
                0x08007ddc       0x22 NuttX/nuttx/libc/libc.a(sem_setprotocol.o)
                0x08007ddc                sem_setprotocol
 .text.printf   0x08007dfe       0x1c NuttX/nuttx/libc/libc.a(lib_printf.o)
                0x08007dfe                printf
 .text.vsnprintf
                0x08007e1a       0x2a NuttX/nuttx/libc/libc.a(lib_vsnprintf.o)
                0x08007e1a                vsnprintf
 .text.utodec   0x08007e44       0x24 NuttX/nuttx/libc/libc.a(lib_libvsprintf.o)
 .text.utooct   0x08007e68       0x1e NuttX/nuttx/libc/libc.a(lib_libvsprintf.o)
 .text.utobin   0x08007e86       0x1e NuttX/nuttx/libc/libc.a(lib_libvsprintf.o)
 .text.prejustify
                0x08007ea4       0x8c NuttX/nuttx/libc/libc.a(lib_libvsprintf.o)
 .text.utohex   0x08007f30       0x4a NuttX/nuttx/libc/libc.a(lib_libvsprintf.o)
 .text.utoascii
                0x08007f7a       0x8c NuttX/nuttx/libc/libc.a(lib_libvsprintf.o)
 *fill*         0x08008006        0x2 
 .text.lib_vsprintf
                0x08008008      0x27c NuttX/nuttx/libc/libc.a(lib_libvsprintf.o)
                0x08008008                lib_vsprintf
 .text.memoutstream_putc
                0x08008284       0x1a NuttX/nuttx/libc/libc.a(lib_memoutstream.o)
 *fill*         0x0800829e        0x2 
 .text.lib_memoutstream
                0x080082a0       0x20 NuttX/nuttx/libc/libc.a(lib_memoutstream.o)
                0x080082a0                lib_memoutstream
 .text.nulloutstream_putc
                0x080082c0        0x8 NuttX/nuttx/libc/libc.a(lib_nulloutstream.o)
 .text.lib_nulloutstream
                0x080082c8       0x18 NuttX/nuttx/libc/libc.a(lib_nulloutstream.o)
                0x080082c8                lib_nulloutstream
 .text.isspace  0x080082e0       0x14 NuttX/nuttx/libc/libc.a(lib_sscanf.o)
 .text.vsscanf  0x080082f4      0x31c NuttX/nuttx/libc/libc.a(lib_sscanf.o)
                0x080082f4                vsscanf
 .text.sscanf   0x08008610       0x1a NuttX/nuttx/libc/libc.a(lib_sscanf.o)
                0x08008610                sscanf
 .text.lib_noflush
                0x0800862a        0x4 NuttX/nuttx/libc/libc.a(lib_libnoflush.o)
                0x0800862a                lib_noflush
 .text.strtol   0x0800862e       0x64 NuttX/nuttx/libc/libc.a(lib_strtol.o)
                0x0800862e                strtol
 .text.strtoul  0x08008692       0x66 NuttX/nuttx/libc/libc.a(lib_strtoul.o)
                0x08008692                strtoul
 .text.lib_checkbase
                0x080086f8       0x5e NuttX/nuttx/libc/libc.a(lib_checkbase.o)
                0x080086f8                lib_checkbase
 .text.lib_isbasedigit
                0x08008756       0x4e NuttX/nuttx/libc/libc.a(lib_isbasedigit.o)
                0x08008756                lib_isbasedigit
 .text.memset   0x080087a4       0x10 NuttX/nuttx/libc/libc.a(lib_memset.o)
                0x080087a4                memset
 .text.memchr   0x080087b4       0x1c NuttX/nuttx/libc/libc.a(lib_memchr.o)
                0x080087b4                memchr
 .text.memmove  0x080087d0       0x30 NuttX/nuttx/libc/libc.a(lib_memmove.o)
                0x080087d0                memmove
 .text.lib_skipspace
                0x08008800       0x16 NuttX/nuttx/libc/libc.a(lib_skipspace.o)
                0x08008800                lib_skipspace
 .text.strchr   0x08008816       0x16 NuttX/nuttx/libc/libc.a(lib_strchr.o)
                0x08008816                strchr
 .text.strcmp   0x0800882c       0x16 NuttX/nuttx/libc/libc.a(lib_strcmp.o)
                0x0800882c                strcmp
 .text.strcspn  0x08008842       0x1e NuttX/nuttx/libc/libc.a(lib_strcspn.o)
                0x08008842                strcspn
 .text.strlen   0x08008860       0x10 NuttX/nuttx/libc/libc.a(lib_strlen.o)
                0x08008860                strlen
 .text.strnlen  0x08008870       0x18 NuttX/nuttx/libc/libc.a(lib_strnlen.o)
                0x08008870                strnlen
 .text.strncpy  0x08008888       0x22 NuttX/nuttx/libc/libc.a(lib_strncpy.o)
                0x08008888                strncpy
 *fill*         0x080088aa        0x2 
 .text.__cxa_pure_virtual
                0x080088ac       0x10 NuttX/nuttx/libxx/libcxx.a(libxx_cxapurevirtual.o)
                0x080088ac                __cxa_pure_virtual
 .text.__aeabi_atexit
                0x080088bc        0xa NuttX/nuttx/libxx/libcxx.a(libxx_eabi_atexit.o)
                0x080088bc                __aeabi_atexit
 .text.__cxa_atexit
                0x080088c6        0x4 NuttX/nuttx/libxx/libcxx.a(libxx_cxa_atexit.o)
                0x080088c6                __cxa_atexit
 .text._ZdlPv   0x080088ca        0x4 NuttX/nuttx/libxx/libcxx.a(libxx_delete.o)
                0x080088ca                operator delete(void*)
 .text._ZdaPv   0x080088ce        0x4 NuttX/nuttx/libxx/libcxx.a(libxx_deletea.o)
                0x080088ce                operator delete[](void*)
 .text._Znwj    0x080088d2        0xa NuttX/nuttx/libxx/libcxx.a(libxx_new.o)
                0x080088d2                operator new(unsigned int)
 .text._Znaj    0x080088dc        0xa NuttX/nuttx/libxx/libcxx.a(libxx_newa.o)
                0x080088dc                operator new[](unsigned int)
 .text.syslog_initialize
                0x080088e6        0xc NuttX/nuttx/drivers/libdrivers.a(syslog_initialize.o)
                0x080088e6                syslog_initialize
 *fill*         0x080088f2        0x2 
 .text.syslog_console_channel
                0x080088f4       0x28 NuttX/nuttx/drivers/libdrivers.a(syslog_consolechannel.o)
                0x080088f4                syslog_console_channel
 .text.syslog_dev_takesem
                0x0800891c       0x38 NuttX/nuttx/drivers/libdrivers.a(syslog_device.o)
 .text.syslog_dev_initialize
                0x08008954       0x7c NuttX/nuttx/drivers/libdrivers.a(syslog_device.o)
                0x08008954                syslog_dev_initialize
 .text.syslog_dev_outputready
                0x080089d0       0x64 NuttX/nuttx/drivers/libdrivers.a(syslog_device.o)
 .text.syslog_dev_putc
                0x08008a34       0x68 NuttX/nuttx/drivers/libdrivers.a(syslog_device.o)
                0x08008a34                syslog_dev_putc
 .text.syslog_dev_flush
                0x08008a9c        0x4 NuttX/nuttx/drivers/libdrivers.a(syslog_device.o)
                0x08008a9c                syslog_dev_flush
 .text.fs_initialize
                0x08008aa0        0x4 NuttX/nuttx/fs/libfs.a(fs_initialize.o)
                0x08008aa0                fs_initialize
 .text._files_close
                0x08008aa4       0x2a NuttX/nuttx/fs/libfs.a(fs_files.o)
 *fill*         0x08008ace        0x2 
 .text._files_semtake
                0x08008ad0       0x24 NuttX/nuttx/fs/libfs.a(fs_files.o)
 .text.files_initialize
                0x08008af4        0x2 NuttX/nuttx/fs/libfs.a(fs_files.o)
                0x08008af4                files_initialize
 .text.files_initlist
                0x08008af6        0x8 NuttX/nuttx/fs/libfs.a(fs_files.o)
                0x08008af6                files_initlist
 .text.files_releaselist
                0x08008afe       0x20 NuttX/nuttx/fs/libfs.a(fs_files.o)
                0x08008afe                files_releaselist
 .text.file_dup2
                0x08008b1e       0x86 NuttX/nuttx/fs/libfs.a(fs_files.o)
                0x08008b1e                file_dup2
 .text.files_allocate
                0x08008ba4       0x52 NuttX/nuttx/fs/libfs.a(fs_files.o)
                0x08008ba4                files_allocate
 .text.files_close
                0x08008bf6       0x32 NuttX/nuttx/fs/libfs.a(fs_files.o)
                0x08008bf6                files_close
 .text.files_release
                0x08008c28       0x2a NuttX/nuttx/fs/libfs.a(fs_files.o)
                0x08008c28                files_release
 .text.inode_addref
                0x08008c52       0x1a NuttX/nuttx/fs/libfs.a(fs_inodeaddref.o)
                0x08008c52                inode_addref
 .text.inode_release
                0x08008c6c       0x3a NuttX/nuttx/fs/libfs.a(fs_inoderelease.o)
                0x08008c6c                inode_release
 .text.file_detach
                0x08008ca6       0x54 NuttX/nuttx/fs/libfs.a(fs_filedetach.o)
                0x08008ca6                file_detach
 .text.close    0x08008cfa       0x24 NuttX/nuttx/fs/libfs.a(fs_close.o)
                0x08008cfa                close
 .text.dup2     0x08008d1e       0x3e NuttX/nuttx/fs/libfs.a(fs_dupfd2.o)
                0x08008d1e                dup2
 .text.fs_getfilep
                0x08008d5c       0x26 NuttX/nuttx/fs/libfs.a(fs_getfilep.o)
                0x08008d5c                fs_getfilep
 .text.inode_checkflags
                0x08008d82       0x28 NuttX/nuttx/fs/libfs.a(fs_open.o)
                0x08008d82                inode_checkflags
 .text.open     0x08008daa       0x8c NuttX/nuttx/fs/libfs.a(fs_open.o)
                0x08008daa                open
 .text.file_write
                0x08008e36       0x2c NuttX/nuttx/fs/libfs.a(fs_write.o)
                0x08008e36                file_write
 .text.write    0x08008e62       0x30 NuttX/nuttx/fs/libfs.a(fs_write.o)
                0x08008e62                write
 .text.inode_find
                0x08008e92       0x22 NuttX/nuttx/fs/libfs.a(fs_inodefind.o)
                0x08008e92                inode_find
 .text.inode_free
                0x08008eb4       0x1e NuttX/nuttx/fs/libfs.a(fs_inodefree.o)
                0x08008eb4                inode_free
 *fill*         0x08008ed2        0x2 
 .text.umm_initialize
                0x08008ed4       0x10 NuttX/nuttx/mm/libmm.a(umm_initialize.o)
                0x08008ed4                umm_initialize
 .text.umm_trysemaphore
                0x08008ee4        0xc NuttX/nuttx/mm/libmm.a(umm_sem.o)
                0x08008ee4                umm_trysemaphore
 .text.umm_givesemaphore
                0x08008ef0        0xc NuttX/nuttx/mm/libmm.a(umm_sem.o)
                0x08008ef0                umm_givesemaphore
 .text.free     0x08008efc        0xc NuttX/nuttx/mm/libmm.a(umm_free.o)
                0x08008efc                free
 .text.mallinfo
                0x08008f08       0x24 NuttX/nuttx/mm/libmm.a(umm_mallinfo.o)
                0x08008f08                mallinfo
 .text.malloc   0x08008f2c        0xc NuttX/nuttx/mm/libmm.a(umm_malloc.o)
                0x08008f2c                malloc
 .text.mm_addregion
                0x08008f38       0x50 NuttX/nuttx/mm/libmm.a(mm_initialize.o)
                0x08008f38                mm_addregion
 .text.mm_initialize
                0x08008f88       0x40 NuttX/nuttx/mm/libmm.a(mm_initialize.o)
                0x08008f88                mm_initialize
 .text.mm_free  0x08008fc8       0xa4 NuttX/nuttx/mm/libmm.a(mm_free.o)
                0x08008fc8                mm_free
 .text.mm_mallinfo
                0x0800906c       0x56 NuttX/nuttx/mm/libmm.a(mm_mallinfo.o)
                0x0800906c                mm_mallinfo
 *fill*         0x080090c2        0x2 
 .text.sched_getfiles
                0x080090c4       0x10 NuttX/nuttx/sched/libsched.a(sched_getfiles.o)
                0x080090c4                sched_getfiles
 .text.sched_addreadytorun
                0x080090d4       0x4c NuttX/nuttx/sched/libsched.a(sched_addreadytorun.o)
                0x080090d4                sched_addreadytorun
 .text.sched_removereadytorun
                0x08009120       0x28 NuttX/nuttx/sched/libsched.a(sched_removereadytorun.o)
                0x08009120                sched_removereadytorun
 .text.sched_addprioritized
                0x08009148       0x58 NuttX/nuttx/sched/libsched.a(sched_addprioritized.o)
                0x08009148                sched_addprioritized
 .text.sched_mergepending
                0x080091a0       0x68 NuttX/nuttx/sched/libsched.a(sched_mergepending.o)
                0x080091a0                sched_mergepending
 .text.sched_addblocked
                0x08009208       0x28 NuttX/nuttx/sched/libsched.a(sched_addblocked.o)
                0x08009208                sched_addblocked
 .text.sched_removeblocked
                0x08009230       0x1c NuttX/nuttx/sched/libsched.a(sched_removeblocked.o)
                0x08009230                sched_removeblocked
 .text.sched_process_timer
                0x0800924c       0x18 NuttX/nuttx/sched/libsched.a(sched_processtimer.o)
                0x0800924c                sched_process_timer
 .text.sem_destroy
                0x08009264       0x22 NuttX/nuttx/sched/libsched.a(sem_destroy.o)
                0x08009264                sem_destroy
 *fill*         0x08009286        0x2 
 .text.task_exit
                0x08009288       0x4c NuttX/nuttx/sched/libsched.a(task_exit.o)
                0x08009288                task_exit
 .text.task_terminate
                0x080092d4       0x54 NuttX/nuttx/sched/libsched.a(task_terminate.o)
                0x080092d4                task_terminate
 .text.wd_timer
                0x08009328       0x68 NuttX/nuttx/sched/libsched.a(wd_start.o)
                0x08009328                wd_timer
 .text.sched_gettcb
                0x08009390       0x24 NuttX/nuttx/sched/libsched.a(sched_gettcb.o)
                0x08009390                sched_gettcb
 .text.hrt_absolute_time
                0x080093b4       0x4c src/drivers/stm32/libdrivers__stm32.a(drv_hrt.c.obj)
                0x080093b4                hrt_absolute_time
 .text.hrt_call_reschedule
                0x08009400       0x58 src/drivers/stm32/libdrivers__stm32.a(drv_hrt.c.obj)
 .text.hrt_call_enter
                0x08009458       0x4c src/drivers/stm32/libdrivers__stm32.a(drv_hrt.c.obj)
 .text.hrt_call_internal
                0x080094a4       0x4c src/drivers/stm32/libdrivers__stm32.a(drv_hrt.c.obj)
 .text.hrt_tim_isr
                0x080094f0      0x1e8 src/drivers/stm32/libdrivers__stm32.a(drv_hrt.c.obj)
 .text.hrt_elapsed_time
                0x080096d8       0x24 src/drivers/stm32/libdrivers__stm32.a(drv_hrt.c.obj)
                0x080096d8                hrt_elapsed_time
 .text.hrt_init
                0x080096fc       0x84 src/drivers/stm32/libdrivers__stm32.a(drv_hrt.c.obj)
                0x080096fc                hrt_init
 .text.hrt_call_every
                0x08009780       0x32 src/drivers/stm32/libdrivers__stm32.a(drv_hrt.c.obj)
                0x08009780                hrt_call_every
 .text.up_pwm_servo_set
                0x080097b2        0x4 src/drivers/stm32/libdrivers__stm32.a(drv_pwm_servo.c.obj)
                0x080097b2                up_pwm_servo_set
 .text.up_pwm_servo_init
                0x080097b6       0x74 src/drivers/stm32/libdrivers__stm32.a(drv_pwm_servo.c.obj)
                0x080097b6                up_pwm_servo_init
 *fill*         0x0800982a        0x2 
 .text.up_pwm_servo_set_rate_group_update
                0x0800982c       0x30 src/drivers/stm32/libdrivers__stm32.a(drv_pwm_servo.c.obj)
                0x0800982c                up_pwm_servo_set_rate_group_update
 .text.up_pwm_update
                0x0800985c        0x4 src/drivers/stm32/libdrivers__stm32.a(drv_pwm_servo.c.obj)
                0x0800985c                up_pwm_update
 .text.up_pwm_servo_get_rate_group
                0x08009860       0x20 src/drivers/stm32/libdrivers__stm32.a(drv_pwm_servo.c.obj)
                0x08009860                up_pwm_servo_get_rate_group
 .text.up_pwm_servo_arm
                0x08009880       0x1a src/drivers/stm32/libdrivers__stm32.a(drv_pwm_servo.c.obj)
                0x08009880                up_pwm_servo_arm
 *fill*         0x0800989a        0x2 
 .text.get_timer_channels
                0x0800989c       0x48 src/drivers/stm32/libdrivers__stm32.a(drv_io_timer.c.obj)
 .text.io_timer_handler0
                0x080098e4        0x4 src/drivers/stm32/libdrivers__stm32.a(drv_io_timer.c.obj)
                0x080098e4                io_timer_handler0
 .text.io_timer_handler1
                0x080098e8        0x4 src/drivers/stm32/libdrivers__stm32.a(drv_io_timer.c.obj)
                0x080098e8                io_timer_handler1
 .text.io_timer_handler2
                0x080098ec        0x4 src/drivers/stm32/libdrivers__stm32.a(drv_io_timer.c.obj)
                0x080098ec                io_timer_handler2
 .text.io_timer_validate_channel_index
                0x080098f0       0x3c src/drivers/stm32/libdrivers__stm32.a(drv_io_timer.c.obj)
                0x080098f0                io_timer_validate_channel_index
 .text.io_timer_is_channel_free
                0x0800992c       0x20 src/drivers/stm32/libdrivers__stm32.a(drv_io_timer.c.obj)
                0x0800992c                io_timer_is_channel_free
 .text.io_timer_get_mode_channels
                0x0800994c       0x10 src/drivers/stm32/libdrivers__stm32.a(drv_io_timer.c.obj)
                0x0800994c                io_timer_get_mode_channels
 .text.io_timer_get_channel_mode
                0x0800995c       0x24 src/drivers/stm32/libdrivers__stm32.a(drv_io_timer.c.obj)
                0x0800995c                io_timer_get_channel_mode
 .text.io_timer_trigger
                0x08009980       0x74 src/drivers/stm32/libdrivers__stm32.a(drv_io_timer.c.obj)
                0x08009980                io_timer_trigger
 .text.io_timer_init_timer
                0x080099f4       0xb0 src/drivers/stm32/libdrivers__stm32.a(drv_io_timer.c.obj)
                0x080099f4                io_timer_init_timer
 .text.io_timer_set_rate
                0x08009aa4       0xb4 src/drivers/stm32/libdrivers__stm32.a(drv_io_timer.c.obj)
                0x08009aa4                io_timer_set_rate
 .text.io_timer_channel_init
                0x08009b58      0x108 src/drivers/stm32/libdrivers__stm32.a(drv_io_timer.c.obj)
                0x08009b58                io_timer_channel_init
 .text.io_timer_set_enable
                0x08009c60      0x1a4 src/drivers/stm32/libdrivers__stm32.a(drv_io_timer.c.obj)
                0x08009c60                io_timer_set_enable
 .text.io_timer_free_channel
                0x08009e04       0x50 src/drivers/stm32/libdrivers__stm32.a(drv_io_timer.c.obj)
                0x08009e04                io_timer_free_channel
 .text.io_timer_set_ccr
                0x08009e54       0x44 src/drivers/stm32/libdrivers__stm32.a(drv_io_timer.c.obj)
                0x08009e54                io_timer_set_ccr
 .text.io_timer_get_group
                0x08009e98        0x4 src/drivers/stm32/libdrivers__stm32.a(drv_io_timer.c.obj)
                0x08009e98                io_timer_get_group
 .text.st24_common_crc8
                0x08009e9c       0x3a src/lib/rc/liblib__rc.a(st24.cpp.obj)
                0x08009e9c                st24_common_crc8
 *fill*         0x08009ed6        0x2 
 .text.st24_decode
                0x08009ed8      0x21c src/lib/rc/liblib__rc.a(st24.cpp.obj)
                0x08009ed8                st24_decode
 .text.sumd_crc16
                0x0800a0f4       0x20 src/lib/rc/liblib__rc.a(sumd.cpp.obj)
                0x0800a0f4                sumd_crc16
 .text.sumd_decode
                0x0800a114      0x390 src/lib/rc/liblib__rc.a(sumd.cpp.obj)
                0x0800a114                sumd_decode
 .text.sbus_config
                0x0800a4a4       0x64 src/lib/rc/liblib__rc.a(sbus.cpp.obj)
                0x0800a4a4                sbus_config
 .text.sbus_init
                0x0800a508       0x1e src/lib/rc/liblib__rc.a(sbus.cpp.obj)
                0x0800a508                sbus_init
 *fill*         0x0800a526        0x2 
 .text.sbus1_output
                0x0800a528       0xfc src/lib/rc/liblib__rc.a(sbus.cpp.obj)
                0x0800a528                sbus1_output
 .text.sbus2_output
                0x0800a624        0x4 src/lib/rc/liblib__rc.a(sbus.cpp.obj)
                0x0800a624                sbus2_output
 .text.sbus_parse
                0x0800a628      0x2c0 src/lib/rc/liblib__rc.a(sbus.cpp.obj)
                0x0800a628                sbus_parse
 .text.sbus_input
                0x0800a8e8       0x50 src/lib/rc/liblib__rc.a(sbus.cpp.obj)
                0x0800a8e8                sbus_input
 .text.sbus1_set_output_rate_hz
                0x0800a938       0x28 src/lib/rc/liblib__rc.a(sbus.cpp.obj)
                0x0800a938                sbus1_set_output_rate_hz
 .text._ZL16dsm_guess_formatb
                0x0800a960       0xe4 src/lib/rc/liblib__rc.a(dsm.cpp.obj)
 .text.dsm_config
                0x0800aa44       0x68 src/lib/rc/liblib__rc.a(dsm.cpp.obj)
                0x0800aa44                dsm_config
 .text.dsm_proto_init
                0x0800aaac       0x38 src/lib/rc/liblib__rc.a(dsm.cpp.obj)
                0x0800aaac                dsm_proto_init
 .text.dsm_init
                0x0800aae4       0x30 src/lib/rc/liblib__rc.a(dsm.cpp.obj)
                0x0800aae4                dsm_init
 .text.dsm_bind
                0x0800ab14       0x80 src/lib/rc/liblib__rc.a(dsm.cpp.obj)
                0x0800ab14                dsm_bind
 .text.dsm_parse
                0x0800ab94      0x21c src/lib/rc/liblib__rc.a(dsm.cpp.obj)
                0x0800ab94                dsm_parse
 .text.dsm_input
                0x0800adb0       0x5c src/lib/rc/liblib__rc.a(dsm.cpp.obj)
                0x0800adb0                dsm_input
 .text.sq_addafter
                0x0800ae0c       0x1c NuttX/nuttx/libc/libc.a(sq_addafter.o)
                0x0800ae0c                sq_addafter
 .text.dq_addlast
                0x0800ae28       0x18 NuttX/nuttx/libc/libc.a(dq_addlast.o)
                0x0800ae28                dq_addlast
 .text.strdup   0x0800ae40       0x1c NuttX/nuttx/libc/libc.a(lib_strdup.o)
                0x0800ae40                strdup
 .text.tcgetattr
                0x0800ae5c        0xa NuttX/nuttx/libc/libc.a(lib_tcgetattr.o)
                0x0800ae5c                tcgetattr
 .text.tcsetattr
                0x0800ae66       0x10 NuttX/nuttx/libc/libc.a(lib_tcsetattr.o)
                0x0800ae66                tcsetattr
 .text.file_ioctl
                0x0800ae76       0x2a NuttX/nuttx/fs/libfs.a(fs_ioctl.o)
                0x0800ae76                file_ioctl
 .text.ioctl    0x0800aea0       0x2c NuttX/nuttx/fs/libfs.a(fs_ioctl.o)
                0x0800aea0                ioctl
 .text.file_read
                0x0800aecc       0x38 NuttX/nuttx/fs/libfs.a(fs_read.o)
                0x0800aecc                file_read
 .text.read     0x0800af04       0x2c NuttX/nuttx/fs/libfs.a(fs_read.o)
                0x0800af04                read
 .text.cosf     0x0800af30       0x78 /home/rablsa/gcc-arm-none-eabi-5_4-2016q2/bin/../lib/gcc/arm-none-eabi/5.4.1/../../../../arm-none-eabi/lib/armv7-m/libm.a(lib_a-sf_cos.o)
                0x0800af30                cosf
 .text.floorf   0x0800afa8       0x8c /home/rablsa/gcc-arm-none-eabi-5_4-2016q2/bin/../lib/gcc/arm-none-eabi/5.4.1/../../../../arm-none-eabi/lib/armv7-m/libm.a(lib_a-sf_floor.o)
                0x0800afa8                floorf
 .text.fmaxf    0x0800b034       0x28 /home/rablsa/gcc-arm-none-eabi-5_4-2016q2/bin/../lib/gcc/arm-none-eabi/5.4.1/../../../../arm-none-eabi/lib/armv7-m/libm.a(lib_a-sf_fmax.o)
                0x0800b034                fmaxf
 .text.fminf    0x0800b05c       0x28 /home/rablsa/gcc-arm-none-eabi-5_4-2016q2/bin/../lib/gcc/arm-none-eabi/5.4.1/../../../../arm-none-eabi/lib/armv7-m/libm.a(lib_a-sf_fmin.o)
                0x0800b05c                fminf
 .text.__fpclassifyf
                0x0800b084       0x34 /home/rablsa/gcc-arm-none-eabi-5_4-2016q2/bin/../lib/gcc/arm-none-eabi/5.4.1/../../../../arm-none-eabi/lib/armv7-m/libm.a(lib_a-sf_fpclassify.o)
                0x0800b084                __fpclassifyf
 .text.sinf     0x0800b0b8       0x7c /home/rablsa/gcc-arm-none-eabi-5_4-2016q2/bin/../lib/gcc/arm-none-eabi/5.4.1/../../../../arm-none-eabi/lib/armv7-m/libm.a(lib_a-sf_sin.o)
                0x0800b0b8                sinf
 .text.sqrtf    0x0800b134       0x9c /home/rablsa/gcc-arm-none-eabi-5_4-2016q2/bin/../lib/gcc/arm-none-eabi/5.4.1/../../../../arm-none-eabi/lib/armv7-m/libm.a(lib_a-wf_sqrt.o)
                0x0800b134                sqrtf
 .text.__ieee754_rem_pio2f
                0x0800b1d0      0x2e4 /home/rablsa/gcc-arm-none-eabi-5_4-2016q2/bin/../lib/gcc/arm-none-eabi/5.4.1/../../../../arm-none-eabi/lib/armv7-m/libm.a(lib_a-ef_rem_pio2.o)
                0x0800b1d0                __ieee754_rem_pio2f
 .text.__ieee754_sqrtf
                0x0800b4b4       0xa8 /home/rablsa/gcc-arm-none-eabi-5_4-2016q2/bin/../lib/gcc/arm-none-eabi/5.4.1/../../../../arm-none-eabi/lib/armv7-m/libm.a(lib_a-ef_sqrt.o)
                0x0800b4b4                __ieee754_sqrtf
 .text.__kernel_cosf
                0x0800b55c      0x188 /home/rablsa/gcc-arm-none-eabi-5_4-2016q2/bin/../lib/gcc/arm-none-eabi/5.4.1/../../../../arm-none-eabi/lib/armv7-m/libm.a(lib_a-kf_cos.o)
                0x0800b55c                __kernel_cosf
 .text.__kernel_rem_pio2f
                0x0800b6e4      0x6a0 /home/rablsa/gcc-arm-none-eabi-5_4-2016q2/bin/../lib/gcc/arm-none-eabi/5.4.1/../../../../arm-none-eabi/lib/armv7-m/libm.a(lib_a-kf_rem_pio2.o)
                0x0800b6e4                __kernel_rem_pio2f
 .text.__kernel_sinf
                0x0800bd84       0xec /home/rablsa/gcc-arm-none-eabi-5_4-2016q2/bin/../lib/gcc/arm-none-eabi/5.4.1/../../../../arm-none-eabi/lib/armv7-m/libm.a(lib_a-kf_sin.o)
                0x0800bd84                __kernel_sinf
 .text.matherr  0x0800be70        0x4 /home/rablsa/gcc-arm-none-eabi-5_4-2016q2/bin/../lib/gcc/arm-none-eabi/5.4.1/../../../../arm-none-eabi/lib/armv7-m/libm.a(lib_a-s_matherr.o)
                0x0800be70                matherr
 .text.fabsf    0x0800be74        0x8 /home/rablsa/gcc-arm-none-eabi-5_4-2016q2/bin/../lib/gcc/arm-none-eabi/5.4.1/../../../../arm-none-eabi/lib/armv7-m/libm.a(lib_a-sf_fabs.o)
                0x0800be74                fabsf
 .text.scalbnf  0x0800be7c       0xb0 /home/rablsa/gcc-arm-none-eabi-5_4-2016q2/bin/../lib/gcc/arm-none-eabi/5.4.1/../../../../arm-none-eabi/lib/armv7-m/libm.a(lib_a-sf_scalbn.o)
                0x0800be7c                scalbnf
 .text.copysignf
                0x0800bf2c        0xc /home/rablsa/gcc-arm-none-eabi-5_4-2016q2/bin/../lib/gcc/arm-none-eabi/5.4.1/../../../../arm-none-eabi/lib/armv7-m/libm.a(lib_a-sf_copysign.o)
                0x0800bf2c                copysignf
 .text          0x0800bf38      0x370 /home/rablsa/gcc-arm-none-eabi-5_4-2016q2/bin/../lib/gcc/arm-none-eabi/5.4.1/armv7-m/libgcc.a(_arm_addsubdf3.o)
                0x0800bf38                __aeabi_drsub
                0x0800bf40                __aeabi_dsub
                0x0800bf40                __subdf3
                0x0800bf44                __adddf3
                0x0800bf44                __aeabi_dadd
                0x0800c1bc                __aeabi_ui2d
                0x0800c1bc                __floatunsidf
                0x0800c1dc                __floatsidf
                0x0800c1dc                __aeabi_i2d
                0x0800c200                __extendsfdf2
                0x0800c200                __aeabi_f2d
                0x0800c23c                __aeabi_ul2d
                0x0800c23c                __floatundidf
                0x0800c24c                __floatdidf
                0x0800c24c                __aeabi_l2d
 .text          0x0800c2a8      0x424 /home/rablsa/gcc-arm-none-eabi-5_4-2016q2/bin/../lib/gcc/arm-none-eabi/5.4.1/armv7-m/libgcc.a(_arm_muldivdf3.o)
                0x0800c2a8                __aeabi_dmul
                0x0800c2a8                __muldf3
                0x0800c4fc                __aeabi_ddiv
                0x0800c4fc                __divdf3
 .text          0x0800c6cc       0xa0 /home/rablsa/gcc-arm-none-eabi-5_4-2016q2/bin/../lib/gcc/arm-none-eabi/5.4.1/armv7-m/libgcc.a(_arm_truncdfsf2.o)
                0x0800c6cc                __aeabi_d2f
                0x0800c6cc                __truncdfsf2
 .text          0x0800c76c      0x21c /home/rablsa/gcc-arm-none-eabi-5_4-2016q2/bin/../lib/gcc/arm-none-eabi/5.4.1/armv7-m/libgcc.a(_arm_addsubsf3.o)
                0x0800c76c                __aeabi_frsub
                0x0800c774                __subsf3
                0x0800c774                __aeabi_fsub
                0x0800c778                __aeabi_fadd
                0x0800c778                __addsf3
                0x0800c8d8                __aeabi_ui2f
                0x0800c8d8                __floatunsisf
                0x0800c8e0                __aeabi_i2f
                0x0800c8e0                __floatsisf
                0x0800c8fc                __floatundisf
                0x0800c8fc                __aeabi_ul2f
                0x0800c90c                __floatdisf
                0x0800c90c                __aeabi_l2f
 .text          0x0800c988      0x2a0 /home/rablsa/gcc-arm-none-eabi-5_4-2016q2/bin/../lib/gcc/arm-none-eabi/5.4.1/armv7-m/libgcc.a(_arm_muldivsf3.o)
                0x0800c988                __mulsf3
                0x0800c988                __aeabi_fmul
                0x0800caf0                __divsf3
                0x0800caf0                __aeabi_fdiv
 .text          0x0800cc28       0xec /home/rablsa/gcc-arm-none-eabi-5_4-2016q2/bin/../lib/gcc/arm-none-eabi/5.4.1/armv7-m/libgcc.a(_arm_cmpsf2.o)
                0x0800cc28                __gtsf2
                0x0800cc28                __gesf2
                0x0800cc30                __lesf2
                0x0800cc30                __ltsf2
                0x0800cc38                __nesf2
                0x0800cc38                __eqsf2
                0x0800cc38                __cmpsf2
                0x0800cc98                __aeabi_cfrcmple
                0x0800cca0                __aeabi_cfcmple
                0x0800cca0                __aeabi_cfcmpeq
                0x0800ccb0                __aeabi_fcmpeq
                0x0800ccc4                __aeabi_fcmplt
                0x0800ccd8                __aeabi_fcmple
                0x0800ccec                __aeabi_fcmpge
                0x0800cd00                __aeabi_fcmpgt
 .text          0x0800cd14       0x2c /home/rablsa/gcc-arm-none-eabi-5_4-2016q2/bin/../lib/gcc/arm-none-eabi/5.4.1/armv7-m/libgcc.a(_arm_unordsf2.o)
                0x0800cd14                __aeabi_fcmpun
                0x0800cd14                __unordsf2
 .text          0x0800cd40       0x4c /home/rablsa/gcc-arm-none-eabi-5_4-2016q2/bin/../lib/gcc/arm-none-eabi/5.4.1/armv7-m/libgcc.a(_arm_fixsfsi.o)
                0x0800cd40                __fixsfsi
                0x0800cd40                __aeabi_f2iz
 .text          0x0800cd8c       0x40 /home/rablsa/gcc-arm-none-eabi-5_4-2016q2/bin/../lib/gcc/arm-none-eabi/5.4.1/armv7-m/libgcc.a(_arm_fixunssfsi.o)
                0x0800cd8c                __aeabi_f2uiz
                0x0800cd8c                __fixunssfsi
 .text          0x0800cdcc       0x30 /home/rablsa/gcc-arm-none-eabi-5_4-2016q2/bin/../lib/gcc/arm-none-eabi/5.4.1/armv7-m/libgcc.a(_aeabi_uldivmod.o)
                0x0800cdcc                __aeabi_uldivmod
 .text          0x0800cdfc      0x2ec /home/rablsa/gcc-arm-none-eabi-5_4-2016q2/bin/../lib/gcc/arm-none-eabi/5.4.1/armv7-m/libgcc.a(_udivmoddi4.o)
                0x0800cdfc                __udivmoddi4
 .text          0x0800d0e8        0x4 /home/rablsa/gcc-arm-none-eabi-5_4-2016q2/bin/../lib/gcc/arm-none-eabi/5.4.1/armv7-m/libgcc.a(_dvmd_tls.o)
                0x0800d0e8                __aeabi_ldiv0
                0x0800d0e8                __aeabi_idiv0
 *(.fixup)
 *(.gnu.warning)
 *(.rodata .rodata.*)
 .rodata.g_gpiobase
                0x0800d0ec       0x10 NuttX/nuttx/arch/arm/src/libarch.a(stm32_gpio.o)
                0x0800d0ec                g_gpiobase
 .rodata.str1.1
                0x0800d0fc       0x23 NuttX/nuttx/arch/arm/src/libarch.a(stm32_serial.o)
 *fill*         0x0800d11f        0x1 
 .rodata.uart_devs
                0x0800d120        0xc NuttX/nuttx/arch/arm/src/libarch.a(stm32_serial.o)
 .rodata.g_uart_ops
                0x0800d12c       0x30 NuttX/nuttx/arch/arm/src/libarch.a(stm32_serial.o)
 .rodata.g_uart_dma_ops
                0x0800d15c       0x30 NuttX/nuttx/arch/arm/src/libarch.a(stm32_serial.o)
 .rodata.str1.1
                0x0800d18c       0x17 NuttX/nuttx/arch/arm/src/libarch.a(stm32_dma.o)
 .rodata.__FUNCTION__.6679
                0x0800d1a3        0xa NuttX/nuttx/arch/arm/src/libarch.a(up_assert.o)
 .rodata.__FUNCTION__.6644
                0x0800d1ad        0xd NuttX/nuttx/arch/arm/src/libarch.a(up_assert.o)
 .rodata.str1.1
                0x0800d1ba      0x1c4 NuttX/nuttx/arch/arm/src/libarch.a(up_assert.o)
 .rodata.__FUNCTION__.6652
                0x0800d37e        0xc NuttX/nuttx/arch/arm/src/libarch.a(up_assert.o)
 .rodata.__FUNCTION__.6659
                0x0800d38a       0x10 NuttX/nuttx/arch/arm/src/libarch.a(up_assert.o)
 .rodata.__FUNCTION__.6667
                0x0800d39a        0xd NuttX/nuttx/arch/arm/src/libarch.a(up_assert.o)
 .rodata.__FUNCTION__.5480
                0x0800d3a7        0xd NuttX/nuttx/arch/arm/src/libarch.a(up_hardfault.o)
 .rodata.str1.1
                0x0800d3b4       0x36 NuttX/nuttx/arch/arm/src/libarch.a(up_hardfault.o)
 .rodata        0x0800d3ea        0x4 NuttX/nuttx/arch/arm/src/libarch.a(stm32_vectors.o)
                0x0800d3ea                g_idle_topstack
 .rodata.str1.1
                0x0800d3ee       0x10 NuttX/nuttx/drivers/libdrivers.a(serial.o)
 *fill*         0x0800d3fe        0x2 
 .rodata.g_serialops
                0x0800d400       0x18 NuttX/nuttx/drivers/libdrivers.a(serial.o)
 .rodata.g_default_channel
                0x0800d418        0xc NuttX/nuttx/drivers/libdrivers.a(syslog_channel.o)
                0x0800d418                g_default_channel
 .rodata.str1.1
                0x0800d424       0x11 NuttX/nuttx/fs/libfs.a(fs_inode.o)
 .rodata.str1.1
                0x0800d435       0x11 NuttX/nuttx/mm/libmm.a(mm_sem.o)
 *fill*         0x0800d446        0x2 
 .rodata.g_tasklisttable
                0x0800d448       0x30 NuttX/nuttx/sched/libsched.a(os_start.o)
                0x0800d448                g_tasklisttable
 .rodata.str1.1
                0x0800d478       0x17 NuttX/nuttx/sched/libsched.a(os_bringup.o)
 .rodata.str1.1
                0x0800d48f       0x11 NuttX/nuttx/sched/libsched.a(irq_attach.o)
 .rodata.str1.1
                0x0800d4a0       0x18 NuttX/nuttx/sched/libsched.a(irq_unexpectedisr.o)
 .rodata.str1.1
                0x0800d4b8       0x15 NuttX/nuttx/sched/libsched.a(sem_wait.o)
 .rodata.str1.1
                0x0800d4cd       0x15 NuttX/nuttx/sched/libsched.a(sem_post.o)
 .rodata.g_noname
                0x0800d4e2        0x9 NuttX/nuttx/sched/libsched.a(task_setup.o)
 .rodata.str1.1
                0x0800d4eb        0xd NuttX/nuttx/sched/libsched.a(group_setupidlefiles.o)
 .rodata.str1.1
                0x0800d4eb       0x11 NuttX/nuttx/sched/libsched.a(wd_cancel.o)
 .rodata.str1.1
                0x0800d4fc       0x5f src/modules/px4iofirmware/libmodules__px4iofirmware.a(px4io.c.obj)
                                 0x63 (size before relaxing)
 *fill*         0x0800d55b        0x1 
 .rodata.r_page_config
                0x0800d55c       0x12 src/modules/px4iofirmware/libmodules__px4iofirmware.a(registers.c.obj)
 .rodata.str1.1
                0x0800d56e       0x33 src/modules/px4iofirmware/libmodules__px4iofirmware.a(registers.c.obj)
 .rodata.crc8_tab
                0x0800d5a1      0x100 src/modules/px4iofirmware/libmodules__px4iofirmware.a(serial.c.obj)
 .rodata.str1.1
                0x0800d6a1        0xb src/modules/px4iofirmware/libmodules__px4iofirmware.a(controls.c.obj)
                                 0x16 (size before relaxing)
 .rodata.str1.1
                0x0800d6ac       0x58 src/modules/px4iofirmware/libmodules__px4iofirmware.a(mixer.cpp.obj)
 .rodata._ZTV10MixerGroup
                0x0800d704       0x28 src/modules/systemlib/mixer/libmodules__systemlib__mixer.a(mixer_group.cpp.obj)
                0x0800d704                vtable for MixerGroup
 .rodata._ZTV15HelicopterMixer
                0x0800d72c       0x28 src/modules/systemlib/mixer/libmodules__systemlib__mixer.a(mixer_helicopter.cpp.obj)
                0x0800d72c                vtable for HelicopterMixer
 .rodata.str1.1
                0x0800d754       0x41 src/modules/systemlib/mixer/libmodules__systemlib__mixer.a(mixer_helicopter.cpp.obj)
 *fill*         0x0800d795        0x3 
 .rodata._ZN12_GLOBAL__N_1L14_config_quad_hE
                0x0800d798       0x40 src/modules/systemlib/mixer/libmodules__systemlib__mixer.a(mixer_multirotor.cpp.obj)
 .rodata._ZN12_GLOBAL__N_1L20_config_quad_deadcatE
                0x0800d7d8       0x40 src/modules/systemlib/mixer/libmodules__systemlib__mixer.a(mixer_multirotor.cpp.obj)
 .rodata._ZN12_GLOBAL__N_1L13_config_tri_yE
                0x0800d818       0x30 src/modules/systemlib/mixer/libmodules__systemlib__mixer.a(mixer_multirotor.cpp.obj)
 .rodata._ZN12_GLOBAL__N_1L19_config_twin_engineE
                0x0800d848       0x20 src/modules/systemlib/mixer/libmodules__systemlib__mixer.a(mixer_multirotor.cpp.obj)
 .rodata._ZN12_GLOBAL__N_1L13_config_hex_xE
                0x0800d868       0x60 src/modules/systemlib/mixer/libmodules__systemlib__mixer.a(mixer_multirotor.cpp.obj)
 .rodata._ZN12_GLOBAL__N_1L13_config_hex_tE
                0x0800d8c8       0x60 src/modules/systemlib/mixer/libmodules__systemlib__mixer.a(mixer_multirotor.cpp.obj)
 .rodata._ZN12_GLOBAL__N_1L15_config_hex_coxE
                0x0800d928       0x60 src/modules/systemlib/mixer/libmodules__systemlib__mixer.a(mixer_multirotor.cpp.obj)
 .rodata._ZN12_GLOBAL__N_1L14_config_quad_vE
                0x0800d988       0x40 src/modules/systemlib/mixer/libmodules__systemlib__mixer.a(mixer_multirotor.cpp.obj)
 .rodata.str1.1
                0x0800d9c8       0x4c src/modules/systemlib/mixer/libmodules__systemlib__mixer.a(mixer_multirotor.cpp.obj)
 .rodata._ZN12_GLOBAL__N_1L19_config_rotor_countE
                0x0800da14       0x4c src/modules/systemlib/mixer/libmodules__systemlib__mixer.a(mixer_multirotor.cpp.obj)
 .rodata._ZN12_GLOBAL__N_1L14_config_octa_xE
                0x0800da60       0x80 src/modules/systemlib/mixer/libmodules__systemlib__mixer.a(mixer_multirotor.cpp.obj)
 .rodata._ZN12_GLOBAL__N_1L25_config_dodeca_bottom_coxE
                0x0800dae0       0x60 src/modules/systemlib/mixer/libmodules__systemlib__mixer.a(mixer_multirotor.cpp.obj)
 .rodata._ZN12_GLOBAL__N_1L16_config_hex_plusE
                0x0800db40       0x60 src/modules/systemlib/mixer/libmodules__systemlib__mixer.a(mixer_multirotor.cpp.obj)
 .rodata._ZN12_GLOBAL__N_1L19_config_quad_s250aqE
                0x0800dba0       0x40 src/modules/systemlib/mixer/libmodules__systemlib__mixer.a(mixer_multirotor.cpp.obj)
 .rodata._ZN12_GLOBAL__N_1L17_config_octa_plusE
                0x0800dbe0       0x80 src/modules/systemlib/mixer/libmodules__systemlib__mixer.a(mixer_multirotor.cpp.obj)
 .rodata._ZN12_GLOBAL__N_1L17_config_quad_plusE
                0x0800dc60       0x40 src/modules/systemlib/mixer/libmodules__systemlib__mixer.a(mixer_multirotor.cpp.obj)
 .rodata._ZN12_GLOBAL__N_113_config_indexE
                0x0800dca0       0x4c src/modules/systemlib/mixer/libmodules__systemlib__mixer.a(mixer_multirotor.cpp.obj)
 .rodata._ZN12_GLOBAL__N_1L17_config_quad_wideE
                0x0800dcec       0x40 src/modules/systemlib/mixer/libmodules__systemlib__mixer.a(mixer_multirotor.cpp.obj)
 .rodata._ZN12_GLOBAL__N_1L21_config_octa_cox_wideE
                0x0800dd2c       0x80 src/modules/systemlib/mixer/libmodules__systemlib__mixer.a(mixer_multirotor.cpp.obj)
 .rodata._ZN12_GLOBAL__N_1L22_config_dodeca_top_coxE
                0x0800ddac       0x60 src/modules/systemlib/mixer/libmodules__systemlib__mixer.a(mixer_multirotor.cpp.obj)
 .rodata._ZN12_GLOBAL__N_1L14_config_quad_xE
                0x0800de0c       0x40 src/modules/systemlib/mixer/libmodules__systemlib__mixer.a(mixer_multirotor.cpp.obj)
 .rodata._ZTV15MultirotorMixer
                0x0800de4c       0x28 src/modules/systemlib/mixer/libmodules__systemlib__mixer.a(mixer_multirotor.cpp.obj)
                0x0800de4c                vtable for MultirotorMixer
 .rodata._ZN12_GLOBAL__N_1L16_config_octa_coxE
                0x0800de74       0x80 src/modules/systemlib/mixer/libmodules__systemlib__mixer.a(mixer_multirotor.cpp.obj)
 .rodata._ZTV11SimpleMixer
                0x0800def4       0x28 src/modules/systemlib/mixer/libmodules__systemlib__mixer.a(mixer_simple.cpp.obj)
                0x0800def4                vtable for SimpleMixer
 .rodata.str1.1
                0x0800df1c       0x35 src/modules/systemlib/mixer/libmodules__systemlib__mixer.a(mixer_simple.cpp.obj)
 *fill*         0x0800df51        0x3 
 .rodata._ZTV5Mixer
                0x0800df54       0x28 src/modules/systemlib/mixer/libmodules__systemlib__mixer.a(mixer.cpp.obj)
                0x0800df54                vtable for Mixer
 .rodata._ZTV9NullMixer
                0x0800df7c       0x2c src/modules/systemlib/mixer/libmodules__systemlib__mixer.a(mixer.cpp.obj)
                0x0800df7c                vtable for NullMixer
 .rodata.str1.1
                0x0800dfa8       0x17 NuttX/nuttx/arch/arm/src/libarch.a(up_blocktask.o)
 .rodata.str1.1
                0x0800dfbf       0x19 NuttX/nuttx/arch/arm/src/libarch.a(up_unblocktask.o)
 .rodata.crc32_tab
                0x0800dfd8      0x400 NuttX/nuttx/libc/libc.a(lib_crc32.o)
 .rodata.g_nullstring
                0x0800e3d8        0x7 NuttX/nuttx/libc/libc.a(lib_libvsprintf.o)
 .rodata.str1.1
                0x0800e3df       0x1c NuttX/nuttx/libc/libc.a(lib_libvsprintf.o)
 .rodata.str1.1
                0x0800e3fb       0x1d NuttX/nuttx/libc/libc.a(lib_sscanf.o)
 .rodata.spaces
                0x0800e418        0x7 NuttX/nuttx/libc/libc.a(lib_sscanf.o)
 .rodata.CSWTCH.20
                0x0800e41f       0x21 NuttX/nuttx/libc/libc.a(lib_sscanf.o)
 .rodata.CSWTCH.21
                0x0800e440       0x21 NuttX/nuttx/libc/libc.a(lib_sscanf.o)
 .rodata.str1.1
                0x0800e461       0x19 NuttX/nuttx/libxx/libcxx.a(libxx_cxapurevirtual.o)
 *fill*         0x0800e47a        0x2 
 .rodata.g_syslog_console_channel
                0x0800e47c        0xc NuttX/nuttx/drivers/libdrivers.a(syslog_consolechannel.o)
 .rodata.str1.1
                0x0800e488        0xd NuttX/nuttx/drivers/libdrivers.a(syslog_consolechannel.o)
 .rodata.g_syscrlf
                0x0800e488        0x2 NuttX/nuttx/drivers/libdrivers.a(syslog_device.o)
 .rodata.str1.1
                0x0800e48a       0x11 NuttX/nuttx/fs/libfs.a(fs_files.o)
 .rodata.str1.1
                0x0800e49b       0x1d NuttX/nuttx/sched/libsched.a(sched_addprioritized.o)
 .rodata.str1.1
                0x0800e4b8       0x1b NuttX/nuttx/sched/libsched.a(sched_mergepending.o)
 *fill*         0x0800e4d3        0x1 
 .rodata.latency_buckets
                0x0800e4d4       0x10 src/drivers/stm32/libdrivers__stm32.a(drv_hrt.c.obj)
                0x0800e4d4                latency_buckets
 .rodata.str1.1
                0x0800e4e4      0x238 src/lib/rc/liblib__rc.a(sumd.cpp.obj)
 .rodata._ZL12sbus_decoder
                0x0800e71c       0xc0 src/lib/rc/liblib__rc.a(sbus.cpp.obj)
 .rodata._ZZL16dsm_guess_formatbE5masks
                0x0800e7dc       0x1c src/lib/rc/liblib__rc.a(dsm.cpp.obj)
 .rodata.io_timers
                0x0800e7f8       0xa0 src/drivers/boards/px4io-v2/libdrivers__boards__px4io-v2.a(px4io_timer_config.c.obj)
                0x0800e7f8                io_timers
 .rodata.timer_io_channels
                0x0800e898       0x80 src/drivers/boards/px4io-v2/libdrivers__boards__px4io-v2.a(px4io_timer_config.c.obj)
                0x0800e898                timer_io_channels
 .rodata.str1.4
                0x0800e918        0x8 /home/rablsa/gcc-arm-none-eabi-5_4-2016q2/bin/../lib/gcc/arm-none-eabi/5.4.1/../../../../arm-none-eabi/lib/armv7-m/libm.a(lib_a-wf_sqrt.o)
                                  0x6 (size before relaxing)
 .rodata.npio2_hw
                0x0800e920       0x80 /home/rablsa/gcc-arm-none-eabi-5_4-2016q2/bin/../lib/gcc/arm-none-eabi/5.4.1/../../../../arm-none-eabi/lib/armv7-m/libm.a(lib_a-ef_rem_pio2.o)
 .rodata.two_over_pi
                0x0800e9a0      0x318 /home/rablsa/gcc-arm-none-eabi-5_4-2016q2/bin/../lib/gcc/arm-none-eabi/5.4.1/../../../../arm-none-eabi/lib/armv7-m/libm.a(lib_a-ef_rem_pio2.o)
 .rodata.init_jk
                0x0800ecb8        0xc /home/rablsa/gcc-arm-none-eabi-5_4-2016q2/bin/../lib/gcc/arm-none-eabi/5.4.1/../../../../arm-none-eabi/lib/armv7-m/libm.a(lib_a-kf_rem_pio2.o)
 .rodata.PIo2   0x0800ecc4       0x2c /home/rablsa/gcc-arm-none-eabi-5_4-2016q2/bin/../lib/gcc/arm-none-eabi/5.4.1/../../../../arm-none-eabi/lib/armv7-m/libm.a(lib_a-kf_rem_pio2.o)
 *(.gnu.linkonce.t.*)
 *(.glue_7)
 .glue_7        0x0800ecf0        0x0 linker stubs
 *(.glue_7t)
 .glue_7t       0x0800ecf0        0x0 linker stubs
 *(.got)
 *(.gcc_except_table)
 *(.gnu.linkonce.r.*)
                0x0800ecf0                _etext = ABSOLUTE (.)
                0x08002eec                __errno = get_errno_ptr

.vfp11_veneer   0x0800ecf0        0x0
 .vfp11_veneer  0x0800ecf0        0x0 linker stubs

.v4_bx          0x0800ecf0        0x0
 .v4_bx         0x0800ecf0        0x0 linker stubs

.iplt           0x0800ecf0        0x0
 .iplt          0x0800ecf0        0x0 src/firmware/nuttx/CMakeFiles/nuttx_px4io-v2_default.elf.dir/__/__/platforms/empty.c.obj

.init_section   0x0800ecf0        0x4
                0x0800ecf0                _sinit = ABSOLUTE (.)
 *(.init_array .init_array.*)
 .init_array    0x0800ecf0        0x4 src/modules/px4iofirmware/libmodules__px4iofirmware.a(mixer.cpp.obj)
                0x0800ecf4                _einit = ABSOLUTE (.)

.ARM.extab
 *(.ARM.extab*)
                0x0800ecf4                __exidx_start = ABSOLUTE (.)

.ARM.exidx      0x0800ecf4        0x8
 *(.ARM.exidx*)
 .ARM.exidx     0x0800ecf4        0x8 /home/rablsa/gcc-arm-none-eabi-5_4-2016q2/bin/../lib/gcc/arm-none-eabi/5.4.1/armv7-m/libgcc.a(_udivmoddi4.o)
                0x0800ecfc                __exidx_end = ABSOLUTE (.)
                0x0800ecfc                _eronly = ABSOLUTE (.)

.rel.dyn        0x0800ecfc        0x0
 .rel.iplt      0x0800ecfc        0x0 src/firmware/nuttx/CMakeFiles/nuttx_px4io-v2_default.elf.dir/__/__/platforms/empty.c.obj

.data           0x20000000      0x22c load address 0x0800ecfc
                0x20000000                _sdata = ABSOLUTE (.)
 *(.data .data.*)
 .data.g_usart1priv
                0x20000000       0x68 NuttX/nuttx/arch/arm/src/libarch.a(stm32_serial.o)
 .data.g_usart2priv
                0x20000068       0x68 NuttX/nuttx/arch/arm/src/libarch.a(stm32_serial.o)
 .data.g_usart3priv
                0x200000d0       0x68 NuttX/nuttx/arch/arm/src/libarch.a(stm32_serial.o)
 .data.g_dma    0x20000138       0x70 NuttX/nuttx/arch/arm/src/libarch.a(stm32_dma.o)
 .data.g_syslog_mask
                0x200001a8        0x1 NuttX/nuttx/libc/libc.a(lib_setlogmask.o)
                0x200001a8                g_syslog_mask
 *fill*         0x200001a9        0x3 
 .data.g_syslog_channel
                0x200001ac        0x4 NuttX/nuttx/drivers/libdrivers.a(syslog_channel.o)
                0x200001ac                g_syslog_channel
 .data.brightness.7306
                0x200001b0        0x4 src/modules/px4iofirmware/libmodules__px4iofirmware.a(px4io.c.obj)
 .data.r_page_servo_control_min
                0x200001b4       0x10 src/modules/px4iofirmware/libmodules__px4iofirmware.a(registers.c.obj)
                0x200001b4                r_page_servo_control_min
 .data.r_page_servo_control_max
                0x200001c4       0x10 src/modules/px4iofirmware/libmodules__px4iofirmware.a(registers.c.obj)
                0x200001c4                r_page_servo_control_max
 .data.r_page_setup
                0x200001d4       0x36 src/modules/px4iofirmware/libmodules__px4iofirmware.a(registers.c.obj)
                0x200001d4                r_page_setup
 *fill*         0x2000020a        0x2 
 .data._dsm_fd  0x2000020c        0x4 src/modules/px4iofirmware/libmodules__px4iofirmware.a(controls.c.obj)
 .data._sbus_fd
                0x20000210        0x4 src/modules/px4iofirmware/libmodules__px4iofirmware.a(controls.c.obj)
                0x20000210                _sbus_fd
 .data.channel_allocations
                0x20000214        0x6 src/drivers/stm32/libdrivers__stm32.a(drv_io_timer.c.obj)
                0x20000214                channel_allocations
 .data._sumd    0x2000021a        0x1 src/lib/rc/liblib__rc.a(sumd.cpp.obj)
                0x2000021a                _sumd
 *fill*         0x2000021b        0x1 
 .data._ZL17sbus1_frame_delay
                0x2000021c        0x4 src/lib/rc/liblib__rc.a(sbus.cpp.obj)
 .data._ZL17sbus_decode_state
                0x20000220        0x2 src/lib/rc/liblib__rc.a(sbus.cpp.obj)
 *fill*         0x20000222        0x2 
 .data._ZL6dsm_fd
                0x20000224        0x4 src/lib/rc/liblib__rc.a(dsm.cpp.obj)
 .data.__fdlib_version
                0x20000228        0x1 /home/rablsa/gcc-arm-none-eabi-5_4-2016q2/bin/../lib/gcc/arm-none-eabi/5.4.1/../../../../arm-none-eabi/lib/armv7-m/libm.a(lib_a-s_lib_ver.o)
                0x20000228                __fdlib_version
 *(.gnu.linkonce.d.*)
                0x20000229                _edata = ABSOLUTE (.)
                0x2000022c                . = ALIGN (0x4)
 *fill*         0x20000229        0x3 

.igot.plt       0x2000022c        0x0 load address 0x0800ef28
 .igot.plt      0x2000022c        0x0 src/firmware/nuttx/CMakeFiles/nuttx_px4io-v2_default.elf.dir/__/__/platforms/empty.c.obj

.bss            0x20000230      0xb77 load address 0x0800ef28
                0x20000230                _sbss = ABSOLUTE (.)
 *(.bss .bss.*)
 .bss.g_usart1txbuffer
                0x20000230       0x28 NuttX/nuttx/arch/arm/src/libarch.a(stm32_serial.o)
 .bss.g_usart1rxfifo
                0x20000258       0x20 NuttX/nuttx/arch/arm/src/libarch.a(stm32_serial.o)
 .bss.g_usart2rxbuffer
                0x20000278       0x40 NuttX/nuttx/arch/arm/src/libarch.a(stm32_serial.o)
 .bss.g_usart2txbuffer
                0x200002b8       0x40 NuttX/nuttx/arch/arm/src/libarch.a(stm32_serial.o)
 .bss.g_usart3rxbuffer
                0x200002f8       0x40 NuttX/nuttx/arch/arm/src/libarch.a(stm32_serial.o)
 .bss.g_usart1rxbuffer
                0x20000338       0x40 NuttX/nuttx/arch/arm/src/libarch.a(stm32_serial.o)
 .bss.g_usart3rxfifo
                0x20000378       0x20 NuttX/nuttx/arch/arm/src/libarch.a(stm32_serial.o)
 .bss.g_usart3txbuffer
                0x20000398       0x40 NuttX/nuttx/arch/arm/src/libarch.a(stm32_serial.o)
 .bss.g_current_regs
                0x200003d8        0x4 NuttX/nuttx/arch/arm/src/libarch.a(stm32_irq.o)
                0x200003d8                g_current_regs
 .bss.g_inode_sem
                0x200003dc        0x6 NuttX/nuttx/fs/libfs.a(fs_inode.o)
 *fill*         0x200003e2        0x2 
 .bss.g_root_inode
                0x200003e4        0x4 NuttX/nuttx/fs/libfs.a(fs_inodesearch.o)
                0x200003e4                g_root_inode
 .bss.g_mmheap  0x200003e8       0xa4 NuttX/nuttx/mm/libmm.a(umm_globals.o)
                0x200003e8                g_mmheap
 .bss.g_irqerrno
                0x2000048c        0x4 NuttX/nuttx/sched/libsched.a(errno_getptr.o)
 .bss.g_pendingtasks
                0x20000490        0x8 NuttX/nuttx/sched/libsched.a(os_start.o)
                0x20000490                g_pendingtasks
 .bss.g_delayed_kufree
                0x20000498        0x8 NuttX/nuttx/sched/libsched.a(os_start.o)
                0x20000498                g_delayed_kufree
 .bss.g_waitingforsemaphore
                0x200004a0        0x8 NuttX/nuttx/sched/libsched.a(os_start.o)
                0x200004a0                g_waitingforsemaphore
 .bss.g_pidhash
                0x200004a8       0x10 NuttX/nuttx/sched/libsched.a(os_start.o)
                0x200004a8                g_pidhash
 .bss.g_lastpid
                0x200004b8        0x2 NuttX/nuttx/sched/libsched.a(os_start.o)
                0x200004b8                g_lastpid
 *fill*         0x200004ba        0x2 
 .bss.g_readytorun
                0x200004bc        0x8 NuttX/nuttx/sched/libsched.a(os_start.o)
                0x200004bc                g_readytorun
 .bss.g_os_initstate
                0x200004c4        0x1 NuttX/nuttx/sched/libsched.a(os_start.o)
                0x200004c4                g_os_initstate
 *fill*         0x200004c5        0x3 
 .bss.g_idleargv
                0x200004c8        0x8 NuttX/nuttx/sched/libsched.a(os_start.o)
 .bss.g_inactivetasks
                0x200004d0        0x8 NuttX/nuttx/sched/libsched.a(os_start.o)
                0x200004d0                g_inactivetasks
 .bss.g_idletcb
                0x200004d8       0x90 NuttX/nuttx/sched/libsched.a(os_start.o)
 .bss.g_irqvector
                0x20000568      0x134 NuttX/nuttx/sched/libsched.a(irq_initialize.o)
                0x20000568                g_irqvector
 .bss.g_wdfreelist
                0x2000069c        0x8 NuttX/nuttx/sched/libsched.a(wd_initialize.o)
                0x2000069c                g_wdfreelist
 .bss.g_wdpool  0x200006a4       0x90 NuttX/nuttx/sched/libsched.a(wd_initialize.o)
 .bss.g_wdnfree
                0x20000734        0x2 NuttX/nuttx/sched/libsched.a(wd_initialize.o)
                0x20000734                g_wdnfree
 *fill*         0x20000736        0x2 
 .bss.g_wdactivelist
                0x20000738        0x8 NuttX/nuttx/sched/libsched.a(wd_initialize.o)
                0x20000738                g_wdactivelist
 .bss.last_msg_counter
                0x20000740        0x4 src/modules/px4iofirmware/libmodules__px4iofirmware.a(px4io.c.obj)
 *fill*         0x20000744        0x4 
 .bss.system_state
                0x20000748       0x18 src/modules/px4iofirmware/libmodules__px4iofirmware.a(px4io.c.obj)
                0x20000748                system_state
 .bss.msg_next_out
                0x20000760        0x1 src/modules/px4iofirmware/libmodules__px4iofirmware.a(px4io.c.obj)
 *fill*         0x20000761        0x7 
 .bss.serial_dma_call
                0x20000768       0x20 src/modules/px4iofirmware/libmodules__px4iofirmware.a(px4io.c.obj)
 .bss.msg_counter
                0x20000788        0x4 src/modules/px4iofirmware/libmodules__px4iofirmware.a(px4io.c.obj)
 .bss.heartbeat.7300
                0x2000078c        0x1 src/modules/px4iofirmware/libmodules__px4iofirmware.a(px4io.c.obj)
 .bss.msg       0x2000078d       0x28 src/modules/px4iofirmware/libmodules__px4iofirmware.a(px4io.c.obj)
 .bss.msg_next_in
                0x200007b5        0x1 src/modules/px4iofirmware/libmodules__px4iofirmware.a(px4io.c.obj)
 *fill*         0x200007b6        0x2 
 .bss.pwm_limit
                0x200007b8       0x10 src/modules/px4iofirmware/libmodules__px4iofirmware.a(px4io.c.obj)
                0x200007b8                pwm_limit
 .bss.on_counter.7308
                0x200007c8        0x4 src/modules/px4iofirmware/libmodules__px4iofirmware.a(px4io.c.obj)
 *fill*         0x200007cc        0x4 
 .bss.last_mem_time.7294
                0x200007d0        0x8 src/modules/px4iofirmware/libmodules__px4iofirmware.a(px4io.c.obj)
 .bss.dt        0x200007d8        0x4 src/modules/px4iofirmware/libmodules__px4iofirmware.a(px4io.c.obj)
                0x200007d8                dt
 .bss.brightness_counter.7307
                0x200007dc        0x4 src/modules/px4iofirmware/libmodules__px4iofirmware.a(px4io.c.obj)
 .bss.reboot_time
                0x200007e0        0x8 src/modules/px4iofirmware/libmodules__px4iofirmware.a(px4io.c.obj)
 .bss.counter.7305
                0x200007e8        0x4 src/modules/px4iofirmware/libmodules__px4iofirmware.a(px4io.c.obj)
 .bss.r_page_rc_input
                0x200007ec       0x14 src/modules/px4iofirmware/libmodules__px4iofirmware.a(registers.c.obj)
                0x200007ec                r_page_rc_input
 .bss.r_page_servo_failsafe
                0x20000800       0x10 src/modules/px4iofirmware/libmodules__px4iofirmware.a(registers.c.obj)
                0x20000800                r_page_servo_failsafe
 .bss.r_page_servos
                0x20000810       0x10 src/modules/px4iofirmware/libmodules__px4iofirmware.a(registers.c.obj)
                0x20000810                r_page_servos
 .bss.update_mc_thrust_param
                0x20000820        0x1 src/modules/px4iofirmware/libmodules__px4iofirmware.a(registers.c.obj)
                0x20000820                update_mc_thrust_param
 .bss.last_offset
                0x20000821        0x1 src/modules/px4iofirmware/libmodules__px4iofirmware.a(registers.c.obj)
                0x20000821                last_offset
 .bss.r_page_status
                0x20000822       0x14 src/modules/px4iofirmware/libmodules__px4iofirmware.a(registers.c.obj)
                0x20000822                r_page_status
 .bss.r_page_rc_input_config
                0x20000836       0xd8 src/modules/px4iofirmware/libmodules__px4iofirmware.a(registers.c.obj)
                0x20000836                r_page_rc_input_config
 .bss.r_page_servo_disarmed
                0x2000090e       0x10 src/modules/px4iofirmware/libmodules__px4iofirmware.a(registers.c.obj)
                0x2000090e                r_page_servo_disarmed
 .bss.r_page_controls
                0x2000091e       0x40 src/modules/px4iofirmware/libmodules__px4iofirmware.a(registers.c.obj)
                0x2000091e                r_page_controls
 .bss.r_page_scratch
                0x2000095e       0x40 src/modules/px4iofirmware/libmodules__px4iofirmware.a(registers.c.obj)
                0x2000095e                r_page_scratch
 .bss.r_page_direct_pwm
                0x2000099e       0x10 src/modules/px4iofirmware/libmodules__px4iofirmware.a(registers.c.obj)
                0x2000099e                r_page_direct_pwm
 .bss.r_page_raw_rc_input
                0x200009ae       0x32 src/modules/px4iofirmware/libmodules__px4iofirmware.a(registers.c.obj)
                0x200009ae                r_page_raw_rc_input
 .bss.last_page
                0x200009e0        0x1 src/modules/px4iofirmware/libmodules__px4iofirmware.a(registers.c.obj)
                0x200009e0                last_page
 *fill*         0x200009e1        0x1 
 .bss.r_page_servo_control_trim
                0x200009e2       0x10 src/modules/px4iofirmware/libmodules__px4iofirmware.a(registers.c.obj)
                0x200009e2                r_page_servo_control_trim
 .bss.r_page_actuators
                0x200009f2       0x10 src/modules/px4iofirmware/libmodules__px4iofirmware.a(registers.c.obj)
                0x200009f2                r_page_actuators
 *fill*         0x20000a02        0x6 
 .bss.arming_call
                0x20000a08       0x20 src/modules/px4iofirmware/libmodules__px4iofirmware.a(safety.c.obj)
 .bss.blink_counter
                0x20000a28        0x4 src/modules/px4iofirmware/libmodules__px4iofirmware.a(safety.c.obj)
 .bss.failsafe.6741
                0x20000a2c        0x1 src/modules/px4iofirmware/libmodules__px4iofirmware.a(safety.c.obj)
 *fill*         0x20000a2d        0x3 
 .bss.failsafe_call
                0x20000a30       0x20 src/modules/px4iofirmware/libmodules__px4iofirmware.a(safety.c.obj)
 .bss.counter   0x20000a50        0x4 src/modules/px4iofirmware/libmodules__px4iofirmware.a(safety.c.obj)
 .bss.pc_badidle
                0x20000a54        0x4 src/modules/px4iofirmware/libmodules__px4iofirmware.a(serial.c.obj)
 .bss.rx_dma    0x20000a58        0x4 src/modules/px4iofirmware/libmodules__px4iofirmware.a(serial.c.obj)
 .bss.pc_txns   0x20000a5c        0x4 src/modules/px4iofirmware/libmodules__px4iofirmware.a(serial.c.obj)
 .bss.pc_crcerr
                0x20000a60        0x4 src/modules/px4iofirmware/libmodules__px4iofirmware.a(serial.c.obj)
 .bss.pc_errors
                0x20000a64        0x4 src/modules/px4iofirmware/libmodules__px4iofirmware.a(serial.c.obj)
 .bss.pc_fe     0x20000a68        0x4 src/modules/px4iofirmware/libmodules__px4iofirmware.a(serial.c.obj)
 .bss.dma_packet
                0x20000a6c       0x44 src/modules/px4iofirmware/libmodules__px4iofirmware.a(serial.c.obj)
 .bss.abort_on_idle.7258
                0x20000ab0        0x1 src/modules/px4iofirmware/libmodules__px4iofirmware.a(serial.c.obj)
 *fill*         0x20000ab1        0x3 
 .bss.tx_dma    0x20000ab4        0x4 src/modules/px4iofirmware/libmodules__px4iofirmware.a(serial.c.obj)
 .bss.pc_ne     0x20000ab8        0x4 src/modules/px4iofirmware/libmodules__px4iofirmware.a(serial.c.obj)
 .bss.pc_regerr
                0x20000abc        0x4 src/modules/px4iofirmware/libmodules__px4iofirmware.a(serial.c.obj)
 .bss.pc_ore    0x20000ac0        0x4 src/modules/px4iofirmware/libmodules__px4iofirmware.a(serial.c.obj)
 .bss.pc_idle   0x20000ac4        0x4 src/modules/px4iofirmware/libmodules__px4iofirmware.a(serial.c.obj)
 .bss.adc_perf  0x20000ac8        0x4 src/modules/px4iofirmware/libmodules__px4iofirmware.a(adc.c.obj)
                0x20000ac8                adc_perf
 .bss.c_gather_dsm
                0x20000acc        0x4 src/modules/px4iofirmware/libmodules__px4iofirmware.a(controls.c.obj)
 .bss._rssi_adc_counts
                0x20000ad0        0x4 src/modules/px4iofirmware/libmodules__px4iofirmware.a(controls.c.obj)
 .bss.c_gather_ppm
                0x20000ad4        0x4 src/modules/px4iofirmware/libmodules__px4iofirmware.a(controls.c.obj)
 .bss.rc_value_override
                0x20000ad8        0x2 src/modules/px4iofirmware/libmodules__px4iofirmware.a(controls.c.obj)
 *fill*         0x20000ada        0x2 
 .bss.c_gather_sbus
                0x20000adc        0x4 src/modules/px4iofirmware/libmodules__px4iofirmware.a(controls.c.obj)
 .bss._ZL11mixer_group
                0x20000ae0       0x14 src/modules/px4iofirmware/libmodules__px4iofirmware.a(mixer.cpp.obj)
 *fill*         0x20000af4        0x4 
 .bss._ZL15last_fmu_update
                0x20000af8        0x8 src/modules/px4iofirmware/libmodules__px4iofirmware.a(mixer.cpp.obj)
 .bss._ZL17mixer_text_length
                0x20000b00        0x4 src/modules/px4iofirmware/libmodules__px4iofirmware.a(mixer.cpp.obj)
 .bss._ZL10should_arm
                0x20000b04        0x1 src/modules/px4iofirmware/libmodules__px4iofirmware.a(mixer.cpp.obj)
 .bss._ZL21should_arm_nothrottle
                0x20000b05        0x1 src/modules/px4iofirmware/libmodules__px4iofirmware.a(mixer.cpp.obj)
 .bss._ZL24should_always_enable_pwm
                0x20000b06        0x1 src/modules/px4iofirmware/libmodules__px4iofirmware.a(mixer.cpp.obj)
 .bss._ZL18mixer_servos_armed
                0x20000b07        0x1 src/modules/px4iofirmware/libmodules__px4iofirmware.a(mixer.cpp.obj)
 .bss._ZL8in_mixer
                0x20000b08        0x1 src/modules/px4iofirmware/libmodules__px4iofirmware.a(mixer.cpp.obj)
 .bss._ZL10mixer_text
                0x20000b09       0xe6 src/modules/px4iofirmware/libmodules__px4iofirmware.a(mixer.cpp.obj)
 .bss._ZL20mixer_update_pending
                0x20000bef        0x1 src/modules/px4iofirmware/libmodules__px4iofirmware.a(mixer.cpp.obj)
 .bss._ZL6source
                0x20000bf0        0x1 src/modules/px4iofirmware/libmodules__px4iofirmware.a(mixer.cpp.obj)
 .bss._ZL12new_fmu_data
                0x20000bf1        0x1 src/modules/px4iofirmware/libmodules__px4iofirmware.a(mixer.cpp.obj)
 *fill*         0x20000bf2        0x2 
 .bss.__dso_handle
                0x20000bf4        0x4 NuttX/nuttx/libxx/libcxx.a(libxx_cxa_atexit.o)
                0x20000bf4                __dso_handle
 .bss.g_syslog_dev
                0x20000bf8       0x1c NuttX/nuttx/drivers/libdrivers.a(syslog_device.o)
 .bss.callout_queue
                0x20000c14        0x8 src/drivers/stm32/libdrivers__stm32.a(drv_hrt.c.obj)
 .bss.latency_counters
                0x20000c1c       0x24 src/drivers/stm32/libdrivers__stm32.a(drv_hrt.c.obj)
                0x20000c1c                latency_counters
 .bss.ppm_frame_length
                0x20000c40        0x2 src/drivers/stm32/libdrivers__stm32.a(drv_hrt.c.obj)
                0x20000c40                ppm_frame_length
 *fill*         0x20000c42        0x6 
 .bss.base_time.6784
                0x20000c48        0x8 src/drivers/stm32/libdrivers__stm32.a(drv_hrt.c.obj)
 .bss.last_count.6785
                0x20000c50        0x4 src/drivers/stm32/libdrivers__stm32.a(drv_hrt.c.obj)
 .bss.ppm_decoded_channels
                0x20000c54        0x4 src/drivers/stm32/libdrivers__stm32.a(drv_hrt.c.obj)
                0x20000c54                ppm_decoded_channels
 .bss.latency_baseline
                0x20000c58        0x2 src/drivers/stm32/libdrivers__stm32.a(drv_hrt.c.obj)
 *fill*         0x20000c5a        0x2 
 .bss.ppm       0x20000c5c       0x10 src/drivers/stm32/libdrivers__stm32.a(drv_hrt.c.obj)
                0x20000c5c                ppm
 .bss.ppm_temp_buffer
                0x20000c6c       0x28 src/drivers/stm32/libdrivers__stm32.a(drv_hrt.c.obj)
 .bss.new_channel_count.6762
                0x20000c94        0x4 src/drivers/stm32/libdrivers__stm32.a(drv_hrt.c.obj)
 .bss.ppm_last_valid_decode
                0x20000c98        0x8 src/drivers/stm32/libdrivers__stm32.a(drv_hrt.c.obj)
                0x20000c98                ppm_last_valid_decode
 .bss.latency_actual
                0x20000ca0        0x2 src/drivers/stm32/libdrivers__stm32.a(drv_hrt.c.obj)
 .bss.ppm_buffer
                0x20000ca2       0x28 src/drivers/stm32/libdrivers__stm32.a(drv_hrt.c.obj)
                0x20000ca2                ppm_buffer
 *fill*         0x20000cca        0x2 
 .bss.new_channel_holdoff.6763
                0x20000ccc        0x4 src/drivers/stm32/libdrivers__stm32.a(drv_hrt.c.obj)
 .bss.channels_cache.7236
                0x20000cd0       0x14 src/drivers/stm32/libdrivers__stm32.a(drv_io_timer.c.obj)
 .bss.once      0x20000ce4        0x1 src/drivers/stm32/libdrivers__stm32.a(drv_io_timer.c.obj)
 .bss._ZL13_decode_state
                0x20000ce5        0x1 src/lib/rc/liblib__rc.a(st24.cpp.obj)
 .bss._ZL6_rxlen
                0x20000ce6        0x1 src/lib/rc/liblib__rc.a(st24.cpp.obj)
 .bss._ZL6_rxlen
                0x20000ce7        0x1 src/lib/rc/liblib__rc.a(sumd.cpp.obj)
 .bss._crc8     0x20000ce8        0x1 src/lib/rc/liblib__rc.a(sumd.cpp.obj)
                0x20000ce8                _crc8
 .bss._debug    0x20000ce9        0x1 src/lib/rc/liblib__rc.a(sumd.cpp.obj)
                0x20000ce9                _debug
 .bss._ZL13_decode_state
                0x20000cea        0x1 src/lib/rc/liblib__rc.a(sumd.cpp.obj)
 .bss._crcOK    0x20000ceb        0x1 src/lib/rc/liblib__rc.a(sumd.cpp.obj)
                0x20000ceb                _crcOK
 .bss._crc16    0x20000cec        0x2 src/lib/rc/liblib__rc.a(sumd.cpp.obj)
                0x20000cec                _crc16
 *fill*         0x20000cee        0x2 
 .bss._ZL19partial_frame_count
                0x20000cf0        0x4 src/lib/rc/liblib__rc.a(sbus.cpp.obj)
 *fill*         0x20000cf4        0x4 
 .bss._ZL17last_txframe_time
                0x20000cf8        0x8 src/lib/rc/liblib__rc.a(sbus.cpp.obj)
 .bss._ZL16sbus_frame_drops
                0x20000d00        0x4 src/lib/rc/liblib__rc.a(sbus.cpp.obj)
 .bss._ZL16dsm_decode_state
                0x20000d04        0x1 src/lib/rc/liblib__rc.a(dsm.cpp.obj)
 *fill*         0x20000d05        0x1 
 .bss._ZL12dsm_chan_buf
                0x20000d06       0x24 src/lib/rc/liblib__rc.a(dsm.cpp.obj)
 *fill*         0x20000d2a        0x2 
 .bss._ZZL16dsm_guess_formatbE7samples
                0x20000d2c        0x4 src/lib/rc/liblib__rc.a(dsm.cpp.obj)
 .bss._ZL23dsm_partial_frame_count
                0x20000d30        0x4 src/lib/rc/liblib__rc.a(dsm.cpp.obj)
 .bss._ZL15dsm_frame_drops
                0x20000d34        0x4 src/lib/rc/liblib__rc.a(dsm.cpp.obj)
 .bss._ZL17dsm_channel_shift
                0x20000d38        0x4 src/lib/rc/liblib__rc.a(dsm.cpp.obj)
 .bss._ZZL16dsm_guess_formatbE4cs10
                0x20000d3c        0x4 src/lib/rc/liblib__rc.a(dsm.cpp.obj)
 .bss._ZZL16dsm_guess_formatbE4cs11
                0x20000d40        0x4 src/lib/rc/liblib__rc.a(dsm.cpp.obj)
 *fill*         0x20000d44        0x4 
 .bss._ZL16dsm_last_rx_time
                0x20000d48        0x8 src/lib/rc/liblib__rc.a(dsm.cpp.obj)
 .bss._ZL14dsm_chan_count
                0x20000d50        0x2 src/lib/rc/liblib__rc.a(dsm.cpp.obj)
 *fill*         0x20000d52        0x6 
 .bss._ZL19dsm_last_frame_time
                0x20000d58        0x8 src/lib/rc/liblib__rc.a(dsm.cpp.obj)
 .bss.rc_decode_buf
                0x20000d60       0x47 src/lib/rc/liblib__rc.a(common_rc.cpp.obj)
                0x20000d60                rc_decode_buf
 *(.gnu.linkonce.b.*)
 *(COMMON)
                0x20000da7                _ebss = ABSOLUTE (.)

.stab
 *(.stab)

.stabstr
 *(.stabstr)

.stab.excl
 *(.stab.excl)

.stab.exclstr
 *(.stab.exclstr)

.stab.index
 *(.stab.index)

.stab.indexstr
 *(.stab.indexstr)

.comment        0x00000000       0x6e
 *(.comment)
 .comment       0x00000000       0x6e NuttX/nuttx/arch/arm/src/libarch.a(stm32_start.o)
                                 0x6f (size before relaxing)
 .comment       0x0000006e       0x6f NuttX/nuttx/arch/arm/src/libarch.a(stm32_rcc.o)
 .comment       0x0000006e       0x6f NuttX/nuttx/arch/arm/src/libarch.a(stm32_gpio.o)
 .comment       0x0000006e       0x6f NuttX/nuttx/arch/arm/src/libarch.a(stm32_lowputc.o)
 .comment       0x0000006e       0x6f NuttX/nuttx/arch/arm/src/libarch.a(stm32_serial.o)
 .comment       0x0000006e       0x6f NuttX/nuttx/arch/arm/src/libarch.a(up_modifyreg32.o)
 .comment       0x0000006e       0x6f NuttX/nuttx/arch/arm/src/libarch.a(up_vectors.o)
 .comment       0x0000006e       0x6f NuttX/nuttx/arch/arm/src/libarch.a(stm32_irq.o)
 .comment       0x0000006e       0x6f NuttX/nuttx/arch/arm/src/libarch.a(stm32_dma.o)
 .comment       0x0000006e       0x6f NuttX/nuttx/arch/arm/src/libarch.a(up_assert.o)
 .comment       0x0000006e       0x6f NuttX/nuttx/arch/arm/src/libarch.a(up_doirq.o)
 .comment       0x0000006e       0x6f NuttX/nuttx/arch/arm/src/libarch.a(up_hardfault.o)
 .comment       0x0000006e       0x6f NuttX/nuttx/arch/arm/src/libarch.a(up_svcall.o)
 .comment       0x0000006e       0x6f NuttX/nuttx/arch/arm/src/libarch.a(up_checkstack.o)
 .comment       0x0000006e       0x6f NuttX/nuttx/libc/libc.a(sem_init.o)
 .comment       0x0000006e       0x6f NuttX/nuttx/libc/libc.a(lib_abort.o)
 .comment       0x0000006e       0x6f NuttX/nuttx/libc/libc.a(lib_strcpy.o)
 .comment       0x0000006e       0x6f NuttX/nuttx/libc/libc.a(lib_syslog.o)
 .comment       0x0000006e       0x6f NuttX/nuttx/libc/libc.a(lib_setlogmask.o)
 .comment       0x0000006e       0x6f NuttX/nuttx/libc/libc.a(lib_cfgetspeed.o)
 .comment       0x0000006e       0x6f NuttX/nuttx/libc/libc.a(lib_cfsetspeed.o)
 .comment       0x0000006e       0x6f NuttX/nuttx/drivers/libdrivers.a(serial.o)
 .comment       0x0000006e       0x6f NuttX/nuttx/drivers/libdrivers.a(serial_io.o)
 .comment       0x0000006e       0x6f NuttX/nuttx/drivers/libdrivers.a(vsyslog.o)
 .comment       0x0000006e       0x6f NuttX/nuttx/drivers/libdrivers.a(syslog_stream.o)
 .comment       0x0000006e       0x6f NuttX/nuttx/drivers/libdrivers.a(syslog_emergstream.o)
 .comment       0x0000006e       0x6f NuttX/nuttx/drivers/libdrivers.a(syslog_putc.o)
 .comment       0x0000006e       0x6f NuttX/nuttx/drivers/libdrivers.a(syslog_force.o)
 .comment       0x0000006e       0x6f NuttX/nuttx/drivers/libdrivers.a(syslog_channel.o)
 .comment       0x0000006e       0x6f NuttX/nuttx/fs/libfs.a(fs_registerdriver.o)
 .comment       0x0000006e       0x6f NuttX/nuttx/fs/libfs.a(fs_inode.o)
 .comment       0x0000006e       0x6f NuttX/nuttx/fs/libfs.a(fs_inodereserve.o)
 .comment       0x0000006e       0x6f NuttX/nuttx/fs/libfs.a(fs_inodesearch.o)
 .comment       0x0000006e       0x6f NuttX/nuttx/mm/libmm.a(umm_zalloc.o)
 .comment       0x0000006e       0x6f NuttX/nuttx/mm/libmm.a(umm_globals.o)
 .comment       0x0000006e       0x6f NuttX/nuttx/mm/libmm.a(mm_zalloc.o)
 .comment       0x0000006e       0x6f NuttX/nuttx/mm/libmm.a(mm_malloc.o)
 .comment       0x0000006e       0x6f NuttX/nuttx/mm/libmm.a(mm_sem.o)
 .comment       0x0000006e       0x6f NuttX/nuttx/mm/libmm.a(mm_addfreechunk.o)
 .comment       0x0000006e       0x6f NuttX/nuttx/mm/libmm.a(mm_size2ndx.o)
 .comment       0x0000006e       0x6f NuttX/nuttx/sched/libsched.a(errno_getptr.o)
 .comment       0x0000006e       0x6f NuttX/nuttx/sched/libsched.a(os_start.o)
 .comment       0x0000006e       0x6f NuttX/nuttx/sched/libsched.a(os_bringup.o)
 .comment       0x0000006e       0x6f NuttX/nuttx/sched/libsched.a(irq_attach.o)
 .comment       0x0000006e       0x6f NuttX/nuttx/sched/libsched.a(irq_dispatch.o)
 .comment       0x0000006e       0x6f NuttX/nuttx/sched/libsched.a(irq_unexpectedisr.o)
 .comment       0x0000006e       0x6f NuttX/nuttx/sched/libsched.a(sched_garbage.o)
 .comment       0x0000006e       0x6f NuttX/nuttx/sched/libsched.a(sched_foreach.o)
 .comment       0x0000006e       0x6f NuttX/nuttx/sched/libsched.a(sched_idletask.o)
 .comment       0x0000006e       0x6f NuttX/nuttx/sched/libsched.a(sem_wait.o)
 .comment       0x0000006e       0x6f NuttX/nuttx/sched/libsched.a(sem_trywait.o)
 .comment       0x0000006e       0x6f NuttX/nuttx/sched/libsched.a(sem_post.o)
 .comment       0x0000006e       0x6f NuttX/nuttx/sched/libsched.a(sem_reset.o)
 .comment       0x0000006e       0x6f NuttX/nuttx/sched/libsched.a(task_create.o)
 .comment       0x0000006e       0x6f NuttX/nuttx/sched/libsched.a(task_setup.o)
 .comment       0x0000006e       0x6f NuttX/nuttx/sched/libsched.a(task_activate.o)
 .comment       0x0000006e       0x6f NuttX/nuttx/sched/libsched.a(task_start.o)
 .comment       0x0000006e       0x6f NuttX/nuttx/sched/libsched.a(task_getpid.o)
 .comment       0x0000006e       0x6f NuttX/nuttx/sched/libsched.a(exit.o)
 .comment       0x0000006e       0x6f NuttX/nuttx/sched/libsched.a(group_create.o)
 .comment       0x0000006e       0x6f NuttX/nuttx/sched/libsched.a(group_setupidlefiles.o)
 .comment       0x0000006e       0x6f NuttX/nuttx/sched/libsched.a(group_setuptaskfiles.o)
 .comment       0x0000006e       0x6f NuttX/nuttx/sched/libsched.a(irq_initialize.o)
 .comment       0x0000006e       0x6f NuttX/nuttx/sched/libsched.a(sched_releasetcb.o)
 .comment       0x0000006e       0x6f NuttX/nuttx/sched/libsched.a(sched_lock.o)
 .comment       0x0000006e       0x6f NuttX/nuttx/sched/libsched.a(sched_unlock.o)
 .comment       0x0000006e       0x6f NuttX/nuttx/sched/libsched.a(task_exithook.o)
 .comment       0x0000006e       0x6f NuttX/nuttx/sched/libsched.a(task_recover.o)
 .comment       0x0000006e       0x6f NuttX/nuttx/sched/libsched.a(wd_recover.o)
 .comment       0x0000006e       0x6f NuttX/nuttx/sched/libsched.a(group_leave.o)
 .comment       0x0000006e       0x6f NuttX/nuttx/sched/libsched.a(sched_free.o)
 .comment       0x0000006e       0x6f NuttX/nuttx/sched/libsched.a(sem_recover.o)
 .comment       0x0000006e       0x6f NuttX/nuttx/sched/libsched.a(wd_cancel.o)
 .comment       0x0000006e       0x6f NuttX/nuttx/sched/libsched.a(wd_delete.o)
 .comment       0x0000006e       0x6f NuttX/nuttx/sched/libsched.a(wd_initialize.o)
 .comment       0x0000006e       0x6f src/drivers/boards/px4io-v2/libdrivers__boards__px4io-v2.a(px4io_init.c.obj)
 .comment       0x0000006e       0x6f src/modules/px4iofirmware/libmodules__px4iofirmware.a(px4io.c.obj)
 .comment       0x0000006e       0x6f src/modules/px4iofirmware/libmodules__px4iofirmware.a(registers.c.obj)
 .comment       0x0000006e       0x6f src/modules/px4iofirmware/libmodules__px4iofirmware.a(safety.c.obj)
 .comment       0x0000006e       0x6f src/modules/px4iofirmware/libmodules__px4iofirmware.a(serial.c.obj)
 .comment       0x0000006e       0x6f src/modules/px4iofirmware/libmodules__px4iofirmware.a(perf_counter.c.obj)
 .comment       0x0000006e       0x6f src/modules/px4iofirmware/libmodules__px4iofirmware.a(pwm_limit.c.obj)
 .comment       0x0000006e       0x6f src/modules/px4iofirmware/libmodules__px4iofirmware.a(adc.c.obj)
 .comment       0x0000006e       0x6f src/modules/px4iofirmware/libmodules__px4iofirmware.a(controls.c.obj)
 .comment       0x0000006e       0x6f src/modules/px4iofirmware/libmodules__px4iofirmware.a(mixer.cpp.obj)
 .comment       0x0000006e       0x6f src/modules/systemlib/mixer/libmodules__systemlib__mixer.a(mixer_group.cpp.obj)
 .comment       0x0000006e       0x6f src/modules/systemlib/mixer/libmodules__systemlib__mixer.a(mixer_helicopter.cpp.obj)
 .comment       0x0000006e       0x6f src/modules/systemlib/mixer/libmodules__systemlib__mixer.a(mixer_multirotor.cpp.obj)
 .comment       0x0000006e       0x6f src/modules/systemlib/mixer/libmodules__systemlib__mixer.a(mixer_simple.cpp.obj)
 .comment       0x0000006e       0x6f src/modules/systemlib/mixer/libmodules__systemlib__mixer.a(mixer.cpp.obj)
 .comment       0x0000006e       0x6f NuttX/apps/libapps.a(gnu_cxxinitialize.o)
 .comment       0x0000006e       0x6f NuttX/nuttx/arch/arm/src/libarch.a(stm32_allocateheap.o)
 .comment       0x0000006e       0x6f NuttX/nuttx/arch/arm/src/libarch.a(stm32_idle.o)
 .comment       0x0000006e       0x6f NuttX/nuttx/arch/arm/src/libarch.a(up_blocktask.o)
 .comment       0x0000006e       0x6f NuttX/nuttx/arch/arm/src/libarch.a(up_copyfullstate.o)
 .comment       0x0000006e       0x6f NuttX/nuttx/arch/arm/src/libarch.a(up_createstack.o)
 .comment       0x0000006e       0x6f NuttX/nuttx/arch/arm/src/libarch.a(up_mdelay.o)
 .comment       0x0000006e       0x6f NuttX/nuttx/arch/arm/src/libarch.a(up_udelay.o)
 .comment       0x0000006e       0x6f NuttX/nuttx/arch/arm/src/libarch.a(up_exit.o)
 .comment       0x0000006e       0x6f NuttX/nuttx/arch/arm/src/libarch.a(up_initialize.o)
 .comment       0x0000006e       0x6f NuttX/nuttx/arch/arm/src/libarch.a(up_initialstate.o)
 .comment       0x0000006e       0x6f NuttX/nuttx/arch/arm/src/libarch.a(up_interruptcontext.o)
 .comment       0x0000006e       0x6f NuttX/nuttx/arch/arm/src/libarch.a(up_releasepending.o)
 .comment       0x0000006e       0x6f NuttX/nuttx/arch/arm/src/libarch.a(up_releasestack.o)
 .comment       0x0000006e       0x6f NuttX/nuttx/arch/arm/src/libarch.a(up_stackframe.o)
 .comment       0x0000006e       0x6f NuttX/nuttx/arch/arm/src/libarch.a(up_systemreset.o)
 .comment       0x0000006e       0x6f NuttX/nuttx/arch/arm/src/libarch.a(up_unblocktask.o)
 .comment       0x0000006e       0x6f NuttX/nuttx/arch/arm/src/libarch.a(stm32_timerisr.o)
 .comment       0x0000006e       0x6f NuttX/nuttx/libc/libc.a(lib_crc32.o)
 .comment       0x0000006e       0x6f NuttX/nuttx/libc/libc.a(sq_addlast.o)
 .comment       0x0000006e       0x6f NuttX/nuttx/libc/libc.a(sq_addfirst.o)
 .comment       0x0000006e       0x6f NuttX/nuttx/libc/libc.a(sq_rem.o)
 .comment       0x0000006e       0x6f NuttX/nuttx/libc/libc.a(sq_remfirst.o)
 .comment       0x0000006e       0x6f NuttX/nuttx/libc/libc.a(sq_remafter.o)
 .comment       0x0000006e       0x6f NuttX/nuttx/libc/libc.a(dq_addfirst.o)
 .comment       0x0000006e       0x6f NuttX/nuttx/libc/libc.a(dq_rem.o)
 .comment       0x0000006e       0x6f NuttX/nuttx/libc/libc.a(sem_setprotocol.o)
 .comment       0x0000006e       0x6f NuttX/nuttx/libc/libc.a(lib_printf.o)
 .comment       0x0000006e       0x6f NuttX/nuttx/libc/libc.a(lib_vsnprintf.o)
 .comment       0x0000006e       0x6f NuttX/nuttx/libc/libc.a(lib_libvsprintf.o)
 .comment       0x0000006e       0x6f NuttX/nuttx/libc/libc.a(lib_memoutstream.o)
 .comment       0x0000006e       0x6f NuttX/nuttx/libc/libc.a(lib_nulloutstream.o)
 .comment       0x0000006e       0x6f NuttX/nuttx/libc/libc.a(lib_sscanf.o)
 .comment       0x0000006e       0x6f NuttX/nuttx/libc/libc.a(lib_libnoflush.o)
 .comment       0x0000006e       0x6f NuttX/nuttx/libc/libc.a(lib_strtol.o)
 .comment       0x0000006e       0x6f NuttX/nuttx/libc/libc.a(lib_strtoul.o)
 .comment       0x0000006e       0x6f NuttX/nuttx/libc/libc.a(lib_checkbase.o)
 .comment       0x0000006e       0x6f NuttX/nuttx/libc/libc.a(lib_isbasedigit.o)
 .comment       0x0000006e       0x6f NuttX/nuttx/libc/libc.a(lib_memset.o)
 .comment       0x0000006e       0x6f NuttX/nuttx/libc/libc.a(lib_memchr.o)
 .comment       0x0000006e       0x6f NuttX/nuttx/libc/libc.a(lib_memmove.o)
 .comment       0x0000006e       0x6f NuttX/nuttx/libc/libc.a(lib_skipspace.o)
 .comment       0x0000006e       0x6f NuttX/nuttx/libc/libc.a(lib_strchr.o)
 .comment       0x0000006e       0x6f NuttX/nuttx/libc/libc.a(lib_strcmp.o)
 .comment       0x0000006e       0x6f NuttX/nuttx/libc/libc.a(lib_strcspn.o)
 .comment       0x0000006e       0x6f NuttX/nuttx/libc/libc.a(lib_strlen.o)
 .comment       0x0000006e       0x6f NuttX/nuttx/libc/libc.a(lib_strnlen.o)
 .comment       0x0000006e       0x6f NuttX/nuttx/libc/libc.a(lib_strncpy.o)
 .comment       0x0000006e       0x6f NuttX/nuttx/libxx/libcxx.a(libxx_cxapurevirtual.o)
 .comment       0x0000006e       0x6f NuttX/nuttx/libxx/libcxx.a(libxx_eabi_atexit.o)
 .comment       0x0000006e       0x6f NuttX/nuttx/libxx/libcxx.a(libxx_cxa_atexit.o)
 .comment       0x0000006e       0x6f NuttX/nuttx/libxx/libcxx.a(libxx_delete.o)
 .comment       0x0000006e       0x6f NuttX/nuttx/libxx/libcxx.a(libxx_deletea.o)
 .comment       0x0000006e       0x6f NuttX/nuttx/libxx/libcxx.a(libxx_new.o)
 .comment       0x0000006e       0x6f NuttX/nuttx/libxx/libcxx.a(libxx_newa.o)
 .comment       0x0000006e       0x6f NuttX/nuttx/drivers/libdrivers.a(syslog_initialize.o)
 .comment       0x0000006e       0x6f NuttX/nuttx/drivers/libdrivers.a(syslog_consolechannel.o)
 .comment       0x0000006e       0x6f NuttX/nuttx/drivers/libdrivers.a(syslog_device.o)
 .comment       0x0000006e       0x6f NuttX/nuttx/fs/libfs.a(fs_initialize.o)
 .comment       0x0000006e       0x6f NuttX/nuttx/fs/libfs.a(fs_files.o)
 .comment       0x0000006e       0x6f NuttX/nuttx/fs/libfs.a(fs_inodeaddref.o)
 .comment       0x0000006e       0x6f NuttX/nuttx/fs/libfs.a(fs_inoderelease.o)
 .comment       0x0000006e       0x6f NuttX/nuttx/fs/libfs.a(fs_filedetach.o)
 .comment       0x0000006e       0x6f NuttX/nuttx/fs/libfs.a(fs_close.o)
 .comment       0x0000006e       0x6f NuttX/nuttx/fs/libfs.a(fs_dupfd2.o)
 .comment       0x0000006e       0x6f NuttX/nuttx/fs/libfs.a(fs_getfilep.o)
 .comment       0x0000006e       0x6f NuttX/nuttx/fs/libfs.a(fs_open.o)
 .comment       0x0000006e       0x6f NuttX/nuttx/fs/libfs.a(fs_write.o)
 .comment       0x0000006e       0x6f NuttX/nuttx/fs/libfs.a(fs_inodefind.o)
 .comment       0x0000006e       0x6f NuttX/nuttx/fs/libfs.a(fs_inodefree.o)
 .comment       0x0000006e       0x6f NuttX/nuttx/mm/libmm.a(umm_initialize.o)
 .comment       0x0000006e       0x6f NuttX/nuttx/mm/libmm.a(umm_sem.o)
 .comment       0x0000006e       0x6f NuttX/nuttx/mm/libmm.a(umm_free.o)
 .comment       0x0000006e       0x6f NuttX/nuttx/mm/libmm.a(umm_mallinfo.o)
 .comment       0x0000006e       0x6f NuttX/nuttx/mm/libmm.a(umm_malloc.o)
 .comment       0x0000006e       0x6f NuttX/nuttx/mm/libmm.a(mm_initialize.o)
 .comment       0x0000006e       0x6f NuttX/nuttx/mm/libmm.a(mm_free.o)
 .comment       0x0000006e       0x6f NuttX/nuttx/mm/libmm.a(mm_mallinfo.o)
 .comment       0x0000006e       0x6f NuttX/nuttx/sched/libsched.a(sched_getfiles.o)
 .comment       0x0000006e       0x6f NuttX/nuttx/sched/libsched.a(sched_addreadytorun.o)
 .comment       0x0000006e       0x6f NuttX/nuttx/sched/libsched.a(sched_removereadytorun.o)
 .comment       0x0000006e       0x6f NuttX/nuttx/sched/libsched.a(sched_addprioritized.o)
 .comment       0x0000006e       0x6f NuttX/nuttx/sched/libsched.a(sched_mergepending.o)
 .comment       0x0000006e       0x6f NuttX/nuttx/sched/libsched.a(sched_addblocked.o)
 .comment       0x0000006e       0x6f NuttX/nuttx/sched/libsched.a(sched_removeblocked.o)
 .comment       0x0000006e       0x6f NuttX/nuttx/sched/libsched.a(sched_processtimer.o)
 .comment       0x0000006e       0x6f NuttX/nuttx/sched/libsched.a(sem_destroy.o)
 .comment       0x0000006e       0x6f NuttX/nuttx/sched/libsched.a(task_exit.o)
 .comment       0x0000006e       0x6f NuttX/nuttx/sched/libsched.a(task_terminate.o)
 .comment       0x0000006e       0x6f NuttX/nuttx/sched/libsched.a(wd_start.o)
 .comment       0x0000006e       0x6f NuttX/nuttx/sched/libsched.a(sched_gettcb.o)
 .comment       0x0000006e       0x6f src/drivers/stm32/libdrivers__stm32.a(drv_hrt.c.obj)
 .comment       0x0000006e       0x6f src/drivers/stm32/libdrivers__stm32.a(drv_pwm_servo.c.obj)
 .comment       0x0000006e       0x6f src/drivers/stm32/libdrivers__stm32.a(drv_io_timer.c.obj)
 .comment       0x0000006e       0x6f src/lib/rc/liblib__rc.a(st24.cpp.obj)
 .comment       0x0000006e       0x6f src/lib/rc/liblib__rc.a(sumd.cpp.obj)
 .comment       0x0000006e       0x6f src/lib/rc/liblib__rc.a(sbus.cpp.obj)
 .comment       0x0000006e       0x6f src/lib/rc/liblib__rc.a(dsm.cpp.obj)
 .comment       0x0000006e       0x6f src/lib/rc/liblib__rc.a(common_rc.cpp.obj)
 .comment       0x0000006e       0x6f NuttX/nuttx/libc/libc.a(sq_addafter.o)
 .comment       0x0000006e       0x6f NuttX/nuttx/libc/libc.a(dq_addlast.o)
 .comment       0x0000006e       0x6f NuttX/nuttx/libc/libc.a(lib_strdup.o)
 .comment       0x0000006e       0x6f NuttX/nuttx/libc/libc.a(lib_tcgetattr.o)
 .comment       0x0000006e       0x6f NuttX/nuttx/libc/libc.a(lib_tcsetattr.o)
 .comment       0x0000006e       0x6f NuttX/nuttx/fs/libfs.a(fs_ioctl.o)
 .comment       0x0000006e       0x6f NuttX/nuttx/fs/libfs.a(fs_read.o)
 .comment       0x0000006e       0x6f src/drivers/boards/px4io-v2/libdrivers__boards__px4io-v2.a(px4io_timer_config.c.obj)

.ARM.attributes
                0x00000000       0x31
 .ARM.attributes
                0x00000000       0x2f NuttX/nuttx/arch/arm/src/libarch.a(stm32_start.o)
 .ARM.attributes
                0x0000002f       0x2f NuttX/nuttx/arch/arm/src/libarch.a(stm32_rcc.o)
 .ARM.attributes
                0x0000005e       0x2f NuttX/nuttx/arch/arm/src/libarch.a(stm32_gpio.o)
 .ARM.attributes
                0x0000008d       0x2f NuttX/nuttx/arch/arm/src/libarch.a(stm32_lowputc.o)
 .ARM.attributes
                0x000000bc       0x2f NuttX/nuttx/arch/arm/src/libarch.a(stm32_serial.o)
 .ARM.attributes
                0x000000eb       0x2f NuttX/nuttx/arch/arm/src/libarch.a(up_modifyreg32.o)
 .ARM.attributes
                0x0000011a       0x2f NuttX/nuttx/arch/arm/src/libarch.a(up_vectors.o)
 .ARM.attributes
                0x00000149       0x21 NuttX/nuttx/arch/arm/src/libarch.a(up_exception.o)
 .ARM.attributes
                0x0000016a       0x2f NuttX/nuttx/arch/arm/src/libarch.a(stm32_irq.o)
 .ARM.attributes
                0x00000199       0x2f NuttX/nuttx/arch/arm/src/libarch.a(stm32_dma.o)
 .ARM.attributes
                0x000001c8       0x2f NuttX/nuttx/arch/arm/src/libarch.a(up_assert.o)
 .ARM.attributes
                0x000001f7       0x2f NuttX/nuttx/arch/arm/src/libarch.a(up_doirq.o)
 .ARM.attributes
                0x00000226       0x2f NuttX/nuttx/arch/arm/src/libarch.a(up_hardfault.o)
 .ARM.attributes
                0x00000255       0x2f NuttX/nuttx/arch/arm/src/libarch.a(up_svcall.o)
 .ARM.attributes
                0x00000284       0x2f NuttX/nuttx/arch/arm/src/libarch.a(up_checkstack.o)
 .ARM.attributes
                0x000002b3       0x21 NuttX/nuttx/arch/arm/src/libarch.a(stm32_vectors.o)
 .ARM.attributes
                0x000002d4       0x21 NuttX/nuttx/libc/libc.a(arch_memcpy.o)
 .ARM.attributes
                0x000002f5       0x2f NuttX/nuttx/libc/libc.a(sem_init.o)
 .ARM.attributes
                0x00000324       0x2f NuttX/nuttx/libc/libc.a(lib_abort.o)
 .ARM.attributes
                0x00000353       0x2f NuttX/nuttx/libc/libc.a(lib_strcpy.o)
 .ARM.attributes
                0x00000382       0x2f NuttX/nuttx/libc/libc.a(lib_syslog.o)
 .ARM.attributes
                0x000003b1       0x2f NuttX/nuttx/libc/libc.a(lib_setlogmask.o)
 .ARM.attributes
                0x000003e0       0x2f NuttX/nuttx/libc/libc.a(lib_cfgetspeed.o)
 .ARM.attributes
                0x0000040f       0x2f NuttX/nuttx/libc/libc.a(lib_cfsetspeed.o)
 .ARM.attributes
                0x0000043e       0x2f NuttX/nuttx/drivers/libdrivers.a(serial.o)
 .ARM.attributes
                0x0000046d       0x2f NuttX/nuttx/drivers/libdrivers.a(serial_io.o)
 .ARM.attributes
                0x0000049c       0x2f NuttX/nuttx/drivers/libdrivers.a(vsyslog.o)
 .ARM.attributes
                0x000004cb       0x2f NuttX/nuttx/drivers/libdrivers.a(syslog_stream.o)
 .ARM.attributes
                0x000004fa       0x2f NuttX/nuttx/drivers/libdrivers.a(syslog_emergstream.o)
 .ARM.attributes
                0x00000529       0x2f NuttX/nuttx/drivers/libdrivers.a(syslog_putc.o)
 .ARM.attributes
                0x00000558       0x2f NuttX/nuttx/drivers/libdrivers.a(syslog_force.o)
 .ARM.attributes
                0x00000587       0x2f NuttX/nuttx/drivers/libdrivers.a(syslog_channel.o)
 .ARM.attributes
                0x000005b6       0x2f NuttX/nuttx/fs/libfs.a(fs_registerdriver.o)
 .ARM.attributes
                0x000005e5       0x2f NuttX/nuttx/fs/libfs.a(fs_inode.o)
 .ARM.attributes
                0x00000614       0x2f NuttX/nuttx/fs/libfs.a(fs_inodereserve.o)
 .ARM.attributes
                0x00000643       0x2f NuttX/nuttx/fs/libfs.a(fs_inodesearch.o)
 .ARM.attributes
                0x00000672       0x2f NuttX/nuttx/mm/libmm.a(umm_zalloc.o)
 .ARM.attributes
                0x000006a1       0x2f NuttX/nuttx/mm/libmm.a(umm_globals.o)
 .ARM.attributes
                0x000006d0       0x2f NuttX/nuttx/mm/libmm.a(mm_zalloc.o)
 .ARM.attributes
                0x000006ff       0x2f NuttX/nuttx/mm/libmm.a(mm_malloc.o)
 .ARM.attributes
                0x0000072e       0x2f NuttX/nuttx/mm/libmm.a(mm_sem.o)
 .ARM.attributes
                0x0000075d       0x2f NuttX/nuttx/mm/libmm.a(mm_addfreechunk.o)
 .ARM.attributes
                0x0000078c       0x2f NuttX/nuttx/mm/libmm.a(mm_size2ndx.o)
 .ARM.attributes
                0x000007bb       0x2f NuttX/nuttx/sched/libsched.a(errno_getptr.o)
 .ARM.attributes
                0x000007ea       0x2f NuttX/nuttx/sched/libsched.a(os_start.o)
 .ARM.attributes
                0x00000819       0x2f NuttX/nuttx/sched/libsched.a(os_bringup.o)
 .ARM.attributes
                0x00000848       0x2f NuttX/nuttx/sched/libsched.a(irq_attach.o)
 .ARM.attributes
                0x00000877       0x2f NuttX/nuttx/sched/libsched.a(irq_dispatch.o)
 .ARM.attributes
                0x000008a6       0x2f NuttX/nuttx/sched/libsched.a(irq_unexpectedisr.o)
 .ARM.attributes
                0x000008d5       0x2f NuttX/nuttx/sched/libsched.a(sched_garbage.o)
 .ARM.attributes
                0x00000904       0x2f NuttX/nuttx/sched/libsched.a(sched_foreach.o)
 .ARM.attributes
                0x00000933       0x2f NuttX/nuttx/sched/libsched.a(sched_idletask.o)
 .ARM.attributes
                0x00000962       0x2f NuttX/nuttx/sched/libsched.a(sem_wait.o)
 .ARM.attributes
                0x00000991       0x2f NuttX/nuttx/sched/libsched.a(sem_trywait.o)
 .ARM.attributes
                0x000009c0       0x2f NuttX/nuttx/sched/libsched.a(sem_post.o)
 .ARM.attributes
                0x000009ef       0x2f NuttX/nuttx/sched/libsched.a(sem_reset.o)
 .ARM.attributes
                0x00000a1e       0x2f NuttX/nuttx/sched/libsched.a(task_create.o)
 .ARM.attributes
                0x00000a4d       0x2f NuttX/nuttx/sched/libsched.a(task_setup.o)
 .ARM.attributes
                0x00000a7c       0x2f NuttX/nuttx/sched/libsched.a(task_activate.o)
 .ARM.attributes
                0x00000aab       0x2f NuttX/nuttx/sched/libsched.a(task_start.o)
 .ARM.attributes
                0x00000ada       0x2f NuttX/nuttx/sched/libsched.a(task_getpid.o)
 .ARM.attributes
                0x00000b09       0x2f NuttX/nuttx/sched/libsched.a(exit.o)
 .ARM.attributes
                0x00000b38       0x2f NuttX/nuttx/sched/libsched.a(group_create.o)
 .ARM.attributes
                0x00000b67       0x2f NuttX/nuttx/sched/libsched.a(group_setupidlefiles.o)
 .ARM.attributes
                0x00000b96       0x2f NuttX/nuttx/sched/libsched.a(group_setuptaskfiles.o)
 .ARM.attributes
                0x00000bc5       0x2f NuttX/nuttx/sched/libsched.a(irq_initialize.o)
 .ARM.attributes
                0x00000bf4       0x2f NuttX/nuttx/sched/libsched.a(sched_releasetcb.o)
 .ARM.attributes
                0x00000c23       0x2f NuttX/nuttx/sched/libsched.a(sched_lock.o)
 .ARM.attributes
                0x00000c52       0x2f NuttX/nuttx/sched/libsched.a(sched_unlock.o)
 .ARM.attributes
                0x00000c81       0x2f NuttX/nuttx/sched/libsched.a(task_exithook.o)
 .ARM.attributes
                0x00000cb0       0x2f NuttX/nuttx/sched/libsched.a(task_recover.o)
 .ARM.attributes
                0x00000cdf       0x2f NuttX/nuttx/sched/libsched.a(wd_recover.o)
 .ARM.attributes
                0x00000d0e       0x2f NuttX/nuttx/sched/libsched.a(group_leave.o)
 .ARM.attributes
                0x00000d3d       0x2f NuttX/nuttx/sched/libsched.a(sched_free.o)
 .ARM.attributes
                0x00000d6c       0x2f NuttX/nuttx/sched/libsched.a(sem_recover.o)
 .ARM.attributes
                0x00000d9b       0x2f NuttX/nuttx/sched/libsched.a(wd_cancel.o)
 .ARM.attributes
                0x00000dca       0x2f NuttX/nuttx/sched/libsched.a(wd_delete.o)
 .ARM.attributes
                0x00000df9       0x2f NuttX/nuttx/sched/libsched.a(wd_initialize.o)
 .ARM.attributes
                0x00000e28       0x2f src/drivers/boards/px4io-v2/libdrivers__boards__px4io-v2.a(px4io_init.c.obj)
 .ARM.attributes
                0x00000e57       0x2f src/modules/px4iofirmware/libmodules__px4iofirmware.a(px4io.c.obj)
 .ARM.attributes
                0x00000e86       0x2f src/modules/px4iofirmware/libmodules__px4iofirmware.a(registers.c.obj)
 .ARM.attributes
                0x00000eb5       0x2f src/modules/px4iofirmware/libmodules__px4iofirmware.a(safety.c.obj)
 .ARM.attributes
                0x00000ee4       0x2f src/modules/px4iofirmware/libmodules__px4iofirmware.a(serial.c.obj)
 .ARM.attributes
                0x00000f13       0x2f src/modules/px4iofirmware/libmodules__px4iofirmware.a(perf_counter.c.obj)
 .ARM.attributes
                0x00000f42       0x2f src/modules/px4iofirmware/libmodules__px4iofirmware.a(pwm_limit.c.obj)
 .ARM.attributes
                0x00000f71       0x2f src/modules/px4iofirmware/libmodules__px4iofirmware.a(adc.c.obj)
 .ARM.attributes
                0x00000fa0       0x2f src/modules/px4iofirmware/libmodules__px4iofirmware.a(controls.c.obj)
 .ARM.attributes
                0x00000fcf       0x2f src/modules/px4iofirmware/libmodules__px4iofirmware.a(mixer.cpp.obj)
 .ARM.attributes
                0x00000ffe       0x2f src/modules/systemlib/mixer/libmodules__systemlib__mixer.a(mixer_group.cpp.obj)
 .ARM.attributes
                0x0000102d       0x2f src/modules/systemlib/mixer/libmodules__systemlib__mixer.a(mixer_helicopter.cpp.obj)
 .ARM.attributes
                0x0000105c       0x2f src/modules/systemlib/mixer/libmodules__systemlib__mixer.a(mixer_multirotor.cpp.obj)
 .ARM.attributes
                0x0000108b       0x2f src/modules/systemlib/mixer/libmodules__systemlib__mixer.a(mixer_simple.cpp.obj)
 .ARM.attributes
                0x000010ba       0x2f src/modules/systemlib/mixer/libmodules__systemlib__mixer.a(mixer.cpp.obj)
 .ARM.attributes
                0x000010e9       0x2f NuttX/apps/libapps.a(gnu_cxxinitialize.o)
 .ARM.attributes
                0x00001118       0x2f NuttX/nuttx/arch/arm/src/libarch.a(stm32_allocateheap.o)
 .ARM.attributes
                0x00001147       0x2f NuttX/nuttx/arch/arm/src/libarch.a(stm32_idle.o)
 .ARM.attributes
                0x00001176       0x2f NuttX/nuttx/arch/arm/src/libarch.a(up_blocktask.o)
 .ARM.attributes
                0x000011a5       0x2f NuttX/nuttx/arch/arm/src/libarch.a(up_copyfullstate.o)
 .ARM.attributes
                0x000011d4       0x2f NuttX/nuttx/arch/arm/src/libarch.a(up_createstack.o)
 .ARM.attributes
                0x00001203       0x2f NuttX/nuttx/arch/arm/src/libarch.a(up_mdelay.o)
 .ARM.attributes
                0x00001232       0x2f NuttX/nuttx/arch/arm/src/libarch.a(up_udelay.o)
 .ARM.attributes
                0x00001261       0x2f NuttX/nuttx/arch/arm/src/libarch.a(up_exit.o)
 .ARM.attributes
                0x00001290       0x2f NuttX/nuttx/arch/arm/src/libarch.a(up_initialize.o)
 .ARM.attributes
                0x000012bf       0x2f NuttX/nuttx/arch/arm/src/libarch.a(up_initialstate.o)
 .ARM.attributes
                0x000012ee       0x2f NuttX/nuttx/arch/arm/src/libarch.a(up_interruptcontext.o)
 .ARM.attributes
                0x0000131d       0x2f NuttX/nuttx/arch/arm/src/libarch.a(up_releasepending.o)
 .ARM.attributes
                0x0000134c       0x2f NuttX/nuttx/arch/arm/src/libarch.a(up_releasestack.o)
 .ARM.attributes
                0x0000137b       0x2f NuttX/nuttx/arch/arm/src/libarch.a(up_stackframe.o)
 .ARM.attributes
                0x000013aa       0x2f NuttX/nuttx/arch/arm/src/libarch.a(up_systemreset.o)
 .ARM.attributes
                0x000013d9       0x2f NuttX/nuttx/arch/arm/src/libarch.a(up_unblocktask.o)
 .ARM.attributes
                0x00001408       0x21 NuttX/nuttx/arch/arm/src/libarch.a(up_fullcontextrestore.o)
 .ARM.attributes
                0x00001429       0x21 NuttX/nuttx/arch/arm/src/libarch.a(up_switchcontext.o)
 .ARM.attributes
                0x0000144a       0x2f NuttX/nuttx/arch/arm/src/libarch.a(stm32_timerisr.o)
 .ARM.attributes
                0x00001479       0x2f NuttX/nuttx/libc/libc.a(lib_crc32.o)
 .ARM.attributes
                0x000014a8       0x2f NuttX/nuttx/libc/libc.a(sq_addlast.o)
 .ARM.attributes
                0x000014d7       0x2f NuttX/nuttx/libc/libc.a(sq_addfirst.o)
 .ARM.attributes
                0x00001506       0x2f NuttX/nuttx/libc/libc.a(sq_rem.o)
 .ARM.attributes
                0x00001535       0x2f NuttX/nuttx/libc/libc.a(sq_remfirst.o)
 .ARM.attributes
                0x00001564       0x2f NuttX/nuttx/libc/libc.a(sq_remafter.o)
 .ARM.attributes
                0x00001593       0x2f NuttX/nuttx/libc/libc.a(dq_addfirst.o)
 .ARM.attributes
                0x000015c2       0x2f NuttX/nuttx/libc/libc.a(dq_rem.o)
 .ARM.attributes
                0x000015f1       0x2f NuttX/nuttx/libc/libc.a(sem_setprotocol.o)
 .ARM.attributes
                0x00001620       0x2f NuttX/nuttx/libc/libc.a(lib_printf.o)
 .ARM.attributes
                0x0000164f       0x2f NuttX/nuttx/libc/libc.a(lib_vsnprintf.o)
 .ARM.attributes
                0x0000167e       0x2f NuttX/nuttx/libc/libc.a(lib_libvsprintf.o)
 .ARM.attributes
                0x000016ad       0x2f NuttX/nuttx/libc/libc.a(lib_memoutstream.o)
 .ARM.attributes
                0x000016dc       0x2f NuttX/nuttx/libc/libc.a(lib_nulloutstream.o)
 .ARM.attributes
                0x0000170b       0x2f NuttX/nuttx/libc/libc.a(lib_sscanf.o)
 .ARM.attributes
                0x0000173a       0x2f NuttX/nuttx/libc/libc.a(lib_libnoflush.o)
 .ARM.attributes
                0x00001769       0x2f NuttX/nuttx/libc/libc.a(lib_strtol.o)
 .ARM.attributes
                0x00001798       0x2f NuttX/nuttx/libc/libc.a(lib_strtoul.o)
 .ARM.attributes
                0x000017c7       0x2f NuttX/nuttx/libc/libc.a(lib_checkbase.o)
 .ARM.attributes
                0x000017f6       0x2f NuttX/nuttx/libc/libc.a(lib_isbasedigit.o)
 .ARM.attributes
                0x00001825       0x2f NuttX/nuttx/libc/libc.a(lib_memset.o)
 .ARM.attributes
                0x00001854       0x2f NuttX/nuttx/libc/libc.a(lib_memchr.o)
 .ARM.attributes
                0x00001883       0x2f NuttX/nuttx/libc/libc.a(lib_memmove.o)
 .ARM.attributes
                0x000018b2       0x2f NuttX/nuttx/libc/libc.a(lib_skipspace.o)
 .ARM.attributes
                0x000018e1       0x2f NuttX/nuttx/libc/libc.a(lib_strchr.o)
 .ARM.attributes
                0x00001910       0x2f NuttX/nuttx/libc/libc.a(lib_strcmp.o)
 .ARM.attributes
                0x0000193f       0x2f NuttX/nuttx/libc/libc.a(lib_strcspn.o)
 .ARM.attributes
                0x0000196e       0x2f NuttX/nuttx/libc/libc.a(lib_strlen.o)
 .ARM.attributes
                0x0000199d       0x2f NuttX/nuttx/libc/libc.a(lib_strnlen.o)
 .ARM.attributes
                0x000019cc       0x2f NuttX/nuttx/libc/libc.a(lib_strncpy.o)
 .ARM.attributes
                0x000019fb       0x2f NuttX/nuttx/libxx/libcxx.a(libxx_cxapurevirtual.o)
 .ARM.attributes
                0x00001a2a       0x2f NuttX/nuttx/libxx/libcxx.a(libxx_eabi_atexit.o)
 .ARM.attributes
                0x00001a59       0x2f NuttX/nuttx/libxx/libcxx.a(libxx_cxa_atexit.o)
 .ARM.attributes
                0x00001a88       0x2f NuttX/nuttx/libxx/libcxx.a(libxx_delete.o)
 .ARM.attributes
                0x00001ab7       0x2f NuttX/nuttx/libxx/libcxx.a(libxx_deletea.o)
 .ARM.attributes
                0x00001ae6       0x2f NuttX/nuttx/libxx/libcxx.a(libxx_new.o)
 .ARM.attributes
                0x00001b15       0x2f NuttX/nuttx/libxx/libcxx.a(libxx_newa.o)
 .ARM.attributes
                0x00001b44       0x2f NuttX/nuttx/drivers/libdrivers.a(syslog_initialize.o)
 .ARM.attributes
                0x00001b73       0x2f NuttX/nuttx/drivers/libdrivers.a(syslog_consolechannel.o)
 .ARM.attributes
                0x00001ba2       0x2f NuttX/nuttx/drivers/libdrivers.a(syslog_device.o)
 .ARM.attributes
                0x00001bd1       0x2f NuttX/nuttx/fs/libfs.a(fs_initialize.o)
 .ARM.attributes
                0x00001c00       0x2f NuttX/nuttx/fs/libfs.a(fs_files.o)
 .ARM.attributes
                0x00001c2f       0x2f NuttX/nuttx/fs/libfs.a(fs_inodeaddref.o)
 .ARM.attributes
                0x00001c5e       0x2f NuttX/nuttx/fs/libfs.a(fs_inoderelease.o)
 .ARM.attributes
                0x00001c8d       0x2f NuttX/nuttx/fs/libfs.a(fs_filedetach.o)
 .ARM.attributes
                0x00001cbc       0x2f NuttX/nuttx/fs/libfs.a(fs_close.o)
 .ARM.attributes
                0x00001ceb       0x2f NuttX/nuttx/fs/libfs.a(fs_dupfd2.o)
 .ARM.attributes
                0x00001d1a       0x2f NuttX/nuttx/fs/libfs.a(fs_getfilep.o)
 .ARM.attributes
                0x00001d49       0x2f NuttX/nuttx/fs/libfs.a(fs_open.o)
 .ARM.attributes
                0x00001d78       0x2f NuttX/nuttx/fs/libfs.a(fs_write.o)
 .ARM.attributes
                0x00001da7       0x2f NuttX/nuttx/fs/libfs.a(fs_inodefind.o)
 .ARM.attributes
                0x00001dd6       0x2f NuttX/nuttx/fs/libfs.a(fs_inodefree.o)
 .ARM.attributes
                0x00001e05       0x2f NuttX/nuttx/mm/libmm.a(umm_initialize.o)
 .ARM.attributes
                0x00001e34       0x2f NuttX/nuttx/mm/libmm.a(umm_sem.o)
 .ARM.attributes
                0x00001e63       0x2f NuttX/nuttx/mm/libmm.a(umm_free.o)
 .ARM.attributes
                0x00001e92       0x2f NuttX/nuttx/mm/libmm.a(umm_mallinfo.o)
 .ARM.attributes
                0x00001ec1       0x2f NuttX/nuttx/mm/libmm.a(umm_malloc.o)
 .ARM.attributes
                0x00001ef0       0x2f NuttX/nuttx/mm/libmm.a(mm_initialize.o)
 .ARM.attributes
                0x00001f1f       0x2f NuttX/nuttx/mm/libmm.a(mm_free.o)
 .ARM.attributes
                0x00001f4e       0x2f NuttX/nuttx/mm/libmm.a(mm_mallinfo.o)
 .ARM.attributes
                0x00001f7d       0x2f NuttX/nuttx/sched/libsched.a(sched_getfiles.o)
 .ARM.attributes
                0x00001fac       0x2f NuttX/nuttx/sched/libsched.a(sched_addreadytorun.o)
 .ARM.attributes
                0x00001fdb       0x2f NuttX/nuttx/sched/libsched.a(sched_removereadytorun.o)
 .ARM.attributes
                0x0000200a       0x2f NuttX/nuttx/sched/libsched.a(sched_addprioritized.o)
 .ARM.attributes
                0x00002039       0x2f NuttX/nuttx/sched/libsched.a(sched_mergepending.o)
 .ARM.attributes
                0x00002068       0x2f NuttX/nuttx/sched/libsched.a(sched_addblocked.o)
 .ARM.attributes
                0x00002097       0x2f NuttX/nuttx/sched/libsched.a(sched_removeblocked.o)
 .ARM.attributes
                0x000020c6       0x2f NuttX/nuttx/sched/libsched.a(sched_processtimer.o)
 .ARM.attributes
                0x000020f5       0x2f NuttX/nuttx/sched/libsched.a(sem_destroy.o)
 .ARM.attributes
                0x00002124       0x2f NuttX/nuttx/sched/libsched.a(task_exit.o)
 .ARM.attributes
                0x00002153       0x2f NuttX/nuttx/sched/libsched.a(task_terminate.o)
 .ARM.attributes
                0x00002182       0x2f NuttX/nuttx/sched/libsched.a(wd_start.o)
 .ARM.attributes
                0x000021b1       0x2f NuttX/nuttx/sched/libsched.a(sched_gettcb.o)
 .ARM.attributes
                0x000021e0       0x2f src/drivers/stm32/libdrivers__stm32.a(drv_hrt.c.obj)
 .ARM.attributes
                0x0000220f       0x2f src/drivers/stm32/libdrivers__stm32.a(drv_pwm_servo.c.obj)
 .ARM.attributes
                0x0000223e       0x2f src/drivers/stm32/libdrivers__stm32.a(drv_io_timer.c.obj)
 .ARM.attributes
                0x0000226d       0x2f src/lib/rc/liblib__rc.a(st24.cpp.obj)
 .ARM.attributes
                0x0000229c       0x2f src/lib/rc/liblib__rc.a(sumd.cpp.obj)
 .ARM.attributes
                0x000022cb       0x2f src/lib/rc/liblib__rc.a(sbus.cpp.obj)
 .ARM.attributes
                0x000022fa       0x2f src/lib/rc/liblib__rc.a(dsm.cpp.obj)
 .ARM.attributes
                0x00002329       0x2f src/lib/rc/liblib__rc.a(common_rc.cpp.obj)
 .ARM.attributes
                0x00002358       0x2f NuttX/nuttx/libc/libc.a(sq_addafter.o)
 .ARM.attributes
                0x00002387       0x2f NuttX/nuttx/libc/libc.a(dq_addlast.o)
 .ARM.attributes
                0x000023b6       0x2f NuttX/nuttx/libc/libc.a(lib_strdup.o)
 .ARM.attributes
                0x000023e5       0x2f NuttX/nuttx/libc/libc.a(lib_tcgetattr.o)
 .ARM.attributes
                0x00002414       0x2f NuttX/nuttx/libc/libc.a(lib_tcsetattr.o)
 .ARM.attributes
                0x00002443       0x2f NuttX/nuttx/fs/libfs.a(fs_ioctl.o)
 .ARM.attributes
                0x00002472       0x2f NuttX/nuttx/fs/libfs.a(fs_read.o)
 .ARM.attributes
                0x000024a1       0x2f src/drivers/boards/px4io-v2/libdrivers__boards__px4io-v2.a(px4io_timer_config.c.obj)
 .ARM.attributes
                0x000024d0       0x2d /home/rablsa/gcc-arm-none-eabi-5_4-2016q2/bin/../lib/gcc/arm-none-eabi/5.4.1/../../../../arm-none-eabi/lib/armv7-m/libm.a(lib_a-sf_cos.o)
 .ARM.attributes
                0x000024fd       0x2d /home/rablsa/gcc-arm-none-eabi-5_4-2016q2/bin/../lib/gcc/arm-none-eabi/5.4.1/../../../../arm-none-eabi/lib/armv7-m/libm.a(lib_a-sf_floor.o)
 .ARM.attributes
                0x0000252a       0x2d /home/rablsa/gcc-arm-none-eabi-5_4-2016q2/bin/../lib/gcc/arm-none-eabi/5.4.1/../../../../arm-none-eabi/lib/armv7-m/libm.a(lib_a-sf_fmax.o)
 .ARM.attributes
                0x00002557       0x2d /home/rablsa/gcc-arm-none-eabi-5_4-2016q2/bin/../lib/gcc/arm-none-eabi/5.4.1/../../../../arm-none-eabi/lib/armv7-m/libm.a(lib_a-sf_fmin.o)
 .ARM.attributes
                0x00002584       0x2d /home/rablsa/gcc-arm-none-eabi-5_4-2016q2/bin/../lib/gcc/arm-none-eabi/5.4.1/../../../../arm-none-eabi/lib/armv7-m/libm.a(lib_a-sf_fpclassify.o)
 .ARM.attributes
                0x000025b1       0x2d /home/rablsa/gcc-arm-none-eabi-5_4-2016q2/bin/../lib/gcc/arm-none-eabi/5.4.1/../../../../arm-none-eabi/lib/armv7-m/libm.a(lib_a-sf_sin.o)
 .ARM.attributes
                0x000025de       0x2d /home/rablsa/gcc-arm-none-eabi-5_4-2016q2/bin/../lib/gcc/arm-none-eabi/5.4.1/../../../../arm-none-eabi/lib/armv7-m/libm.a(lib_a-wf_sqrt.o)
 .ARM.attributes
                0x0000260b       0x2d /home/rablsa/gcc-arm-none-eabi-5_4-2016q2/bin/../lib/gcc/arm-none-eabi/5.4.1/../../../../arm-none-eabi/lib/armv7-m/libm.a(lib_a-ef_rem_pio2.o)
 .ARM.attributes
                0x00002638       0x2d /home/rablsa/gcc-arm-none-eabi-5_4-2016q2/bin/../lib/gcc/arm-none-eabi/5.4.1/../../../../arm-none-eabi/lib/armv7-m/libm.a(lib_a-ef_sqrt.o)
 .ARM.attributes
                0x00002665       0x2d /home/rablsa/gcc-arm-none-eabi-5_4-2016q2/bin/../lib/gcc/arm-none-eabi/5.4.1/../../../../arm-none-eabi/lib/armv7-m/libm.a(lib_a-kf_cos.o)
 .ARM.attributes
                0x00002692       0x2d /home/rablsa/gcc-arm-none-eabi-5_4-2016q2/bin/../lib/gcc/arm-none-eabi/5.4.1/../../../../arm-none-eabi/lib/armv7-m/libm.a(lib_a-kf_rem_pio2.o)
 .ARM.attributes
                0x000026bf       0x2d /home/rablsa/gcc-arm-none-eabi-5_4-2016q2/bin/../lib/gcc/arm-none-eabi/5.4.1/../../../../arm-none-eabi/lib/armv7-m/libm.a(lib_a-kf_sin.o)
 .ARM.attributes
                0x000026ec       0x2d /home/rablsa/gcc-arm-none-eabi-5_4-2016q2/bin/../lib/gcc/arm-none-eabi/5.4.1/../../../../arm-none-eabi/lib/armv7-m/libm.a(lib_a-s_lib_ver.o)
 .ARM.attributes
                0x00002719       0x2d /home/rablsa/gcc-arm-none-eabi-5_4-2016q2/bin/../lib/gcc/arm-none-eabi/5.4.1/../../../../arm-none-eabi/lib/armv7-m/libm.a(lib_a-s_matherr.o)
 .ARM.attributes
                0x00002746       0x2d /home/rablsa/gcc-arm-none-eabi-5_4-2016q2/bin/../lib/gcc/arm-none-eabi/5.4.1/../../../../arm-none-eabi/lib/armv7-m/libm.a(lib_a-sf_fabs.o)
 .ARM.attributes
                0x00002773       0x2d /home/rablsa/gcc-arm-none-eabi-5_4-2016q2/bin/../lib/gcc/arm-none-eabi/5.4.1/../../../../arm-none-eabi/lib/armv7-m/libm.a(lib_a-sf_scalbn.o)
 .ARM.attributes
                0x000027a0       0x2d /home/rablsa/gcc-arm-none-eabi-5_4-2016q2/bin/../lib/gcc/arm-none-eabi/5.4.1/../../../../arm-none-eabi/lib/armv7-m/libm.a(lib_a-sf_copysign.o)
 .ARM.attributes
                0x000027cd       0x1d /home/rablsa/gcc-arm-none-eabi-5_4-2016q2/bin/../lib/gcc/arm-none-eabi/5.4.1/armv7-m/libgcc.a(_arm_addsubdf3.o)
 .ARM.attributes
                0x000027ea       0x1d /home/rablsa/gcc-arm-none-eabi-5_4-2016q2/bin/../lib/gcc/arm-none-eabi/5.4.1/armv7-m/libgcc.a(_arm_muldivdf3.o)
 .ARM.attributes
                0x00002807       0x1d /home/rablsa/gcc-arm-none-eabi-5_4-2016q2/bin/../lib/gcc/arm-none-eabi/5.4.1/armv7-m/libgcc.a(_arm_truncdfsf2.o)
 .ARM.attributes
                0x00002824       0x1d /home/rablsa/gcc-arm-none-eabi-5_4-2016q2/bin/../lib/gcc/arm-none-eabi/5.4.1/armv7-m/libgcc.a(_arm_addsubsf3.o)
 .ARM.attributes
                0x00002841       0x1d /home/rablsa/gcc-arm-none-eabi-5_4-2016q2/bin/../lib/gcc/arm-none-eabi/5.4.1/armv7-m/libgcc.a(_arm_muldivsf3.o)
 .ARM.attributes
                0x0000285e       0x1d /home/rablsa/gcc-arm-none-eabi-5_4-2016q2/bin/../lib/gcc/arm-none-eabi/5.4.1/armv7-m/libgcc.a(_arm_cmpsf2.o)
 .ARM.attributes
                0x0000287b       0x1d /home/rablsa/gcc-arm-none-eabi-5_4-2016q2/bin/../lib/gcc/arm-none-eabi/5.4.1/armv7-m/libgcc.a(_arm_unordsf2.o)
 .ARM.attributes
                0x00002898       0x1d /home/rablsa/gcc-arm-none-eabi-5_4-2016q2/bin/../lib/gcc/arm-none-eabi/5.4.1/armv7-m/libgcc.a(_arm_fixsfsi.o)
 .ARM.attributes
                0x000028b5       0x1d /home/rablsa/gcc-arm-none-eabi-5_4-2016q2/bin/../lib/gcc/arm-none-eabi/5.4.1/armv7-m/libgcc.a(_arm_fixunssfsi.o)
 .ARM.attributes
                0x000028d2       0x1d /home/rablsa/gcc-arm-none-eabi-5_4-2016q2/bin/../lib/gcc/arm-none-eabi/5.4.1/armv7-m/libgcc.a(_aeabi_uldivmod.o)
 .ARM.attributes
                0x000028ef       0x2d /home/rablsa/gcc-arm-none-eabi-5_4-2016q2/bin/../lib/gcc/arm-none-eabi/5.4.1/armv7-m/libgcc.a(_udivmoddi4.o)
 .ARM.attributes
                0x0000291c       0x1d /home/rablsa/gcc-arm-none-eabi-5_4-2016q2/bin/../lib/gcc/arm-none-eabi/5.4.1/armv7-m/libgcc.a(_dvmd_tls.o)

.debug_abbrev   0x00000000    0x133a5
 *(.debug_abbrev)
 .debug_abbrev  0x00000000      0x115 NuttX/nuttx/arch/arm/src/libarch.a(stm32_start.o)
 .debug_abbrev  0x00000115      0x119 NuttX/nuttx/arch/arm/src/libarch.a(stm32_rcc.o)
 .debug_abbrev  0x0000022e      0x1e4 NuttX/nuttx/arch/arm/src/libarch.a(stm32_gpio.o)
 .debug_abbrev  0x00000412       0xcd NuttX/nuttx/arch/arm/src/libarch.a(stm32_lowputc.o)
 .debug_abbrev  0x000004df      0x384 NuttX/nuttx/arch/arm/src/libarch.a(stm32_serial.o)
 .debug_abbrev  0x00000863      0x167 NuttX/nuttx/arch/arm/src/libarch.a(up_modifyreg32.o)
 .debug_abbrev  0x000009ca       0x5a NuttX/nuttx/arch/arm/src/libarch.a(up_vectors.o)
 .debug_abbrev  0x00000a24       0x14 NuttX/nuttx/arch/arm/src/libarch.a(up_exception.o)
 .debug_abbrev  0x00000a38      0x1fa NuttX/nuttx/arch/arm/src/libarch.a(stm32_irq.o)
 .debug_abbrev  0x00000c32      0x2ec NuttX/nuttx/arch/arm/src/libarch.a(stm32_dma.o)
 .debug_abbrev  0x00000f1e      0x32a NuttX/nuttx/arch/arm/src/libarch.a(up_assert.o)
 .debug_abbrev  0x00001248       0xe8 NuttX/nuttx/arch/arm/src/libarch.a(up_doirq.o)
 .debug_abbrev  0x00001330      0x17e NuttX/nuttx/arch/arm/src/libarch.a(up_hardfault.o)
 .debug_abbrev  0x000014ae       0xfa NuttX/nuttx/arch/arm/src/libarch.a(up_svcall.o)
 .debug_abbrev  0x000015a8      0x1f7 NuttX/nuttx/arch/arm/src/libarch.a(up_checkstack.o)
 .debug_abbrev  0x0000179f       0x14 NuttX/nuttx/libc/libc.a(arch_memcpy.o)
 .debug_abbrev  0x000017b3       0xbb NuttX/nuttx/libc/libc.a(sem_init.o)
 .debug_abbrev  0x0000186e       0x6f NuttX/nuttx/libc/libc.a(lib_abort.o)
 .debug_abbrev  0x000018dd       0x83 NuttX/nuttx/libc/libc.a(lib_strcpy.o)
 .debug_abbrev  0x00001960      0x10f NuttX/nuttx/libc/libc.a(lib_syslog.o)
 .debug_abbrev  0x00001a6f      0x16d NuttX/nuttx/libc/libc.a(lib_setlogmask.o)
 .debug_abbrev  0x00001bdc       0xa2 NuttX/nuttx/libc/libc.a(lib_cfgetspeed.o)
 .debug_abbrev  0x00001c7e       0xaa NuttX/nuttx/libc/libc.a(lib_cfsetspeed.o)
 .debug_abbrev  0x00001d28      0x3f1 NuttX/nuttx/drivers/libdrivers.a(serial.o)
 .debug_abbrev  0x00002119      0x1ae NuttX/nuttx/drivers/libdrivers.a(serial_io.o)
 .debug_abbrev  0x000022c7      0x130 NuttX/nuttx/drivers/libdrivers.a(vsyslog.o)
 .debug_abbrev  0x000023f7      0x168 NuttX/nuttx/drivers/libdrivers.a(syslog_stream.o)
 .debug_abbrev  0x0000255f      0x12b NuttX/nuttx/drivers/libdrivers.a(syslog_emergstream.o)
 .debug_abbrev  0x0000268a       0xf0 NuttX/nuttx/drivers/libdrivers.a(syslog_putc.o)
 .debug_abbrev  0x0000277a       0xd4 NuttX/nuttx/drivers/libdrivers.a(syslog_force.o)
 .debug_abbrev  0x0000284e       0xd4 NuttX/nuttx/drivers/libdrivers.a(syslog_channel.o)
 .debug_abbrev  0x00002922      0x175 NuttX/nuttx/fs/libfs.a(fs_registerdriver.o)
 .debug_abbrev  0x00002a97      0x102 NuttX/nuttx/fs/libfs.a(fs_inode.o)
 .debug_abbrev  0x00002b99      0x26a NuttX/nuttx/fs/libfs.a(fs_inodereserve.o)
 .debug_abbrev  0x00002e03      0x1c6 NuttX/nuttx/fs/libfs.a(fs_inodesearch.o)
 .debug_abbrev  0x00002fc9      0x101 NuttX/nuttx/mm/libmm.a(umm_zalloc.o)
 .debug_abbrev  0x000030ca       0xa0 NuttX/nuttx/mm/libmm.a(umm_globals.o)
 .debug_abbrev  0x0000316a      0x116 NuttX/nuttx/mm/libmm.a(mm_zalloc.o)
 .debug_abbrev  0x00003280      0x123 NuttX/nuttx/mm/libmm.a(mm_malloc.o)
 .debug_abbrev  0x000033a3      0x138 NuttX/nuttx/mm/libmm.a(mm_sem.o)
 .debug_abbrev  0x000034db       0xf6 NuttX/nuttx/mm/libmm.a(mm_addfreechunk.o)
 .debug_abbrev  0x000035d1       0x7c NuttX/nuttx/mm/libmm.a(mm_size2ndx.o)
 .debug_abbrev  0x0000364d      0x1b9 NuttX/nuttx/sched/libsched.a(errno_getptr.o)
 .debug_abbrev  0x00003806      0x216 NuttX/nuttx/sched/libsched.a(os_start.o)
 .debug_abbrev  0x00003a1c       0xfe NuttX/nuttx/sched/libsched.a(os_bringup.o)
 .debug_abbrev  0x00003b1a      0x1e0 NuttX/nuttx/sched/libsched.a(irq_attach.o)
 .debug_abbrev  0x00003cfa      0x108 NuttX/nuttx/sched/libsched.a(irq_dispatch.o)
 .debug_abbrev  0x00003e02      0x14b NuttX/nuttx/sched/libsched.a(irq_unexpectedisr.o)
 .debug_abbrev  0x00003f4d      0x205 NuttX/nuttx/sched/libsched.a(sched_garbage.o)
 .debug_abbrev  0x00004152      0x26e NuttX/nuttx/sched/libsched.a(sched_foreach.o)
 .debug_abbrev  0x000043c0      0x169 NuttX/nuttx/sched/libsched.a(sched_idletask.o)
 .debug_abbrev  0x00004529      0x2ad NuttX/nuttx/sched/libsched.a(sem_wait.o)
 .debug_abbrev  0x000047d6      0x269 NuttX/nuttx/sched/libsched.a(sem_trywait.o)
 .debug_abbrev  0x00004a3f      0x293 NuttX/nuttx/sched/libsched.a(sem_post.o)
 .debug_abbrev  0x00004cd2      0x1ab NuttX/nuttx/sched/libsched.a(sem_reset.o)
 .debug_abbrev  0x00004e7d      0x22c NuttX/nuttx/sched/libsched.a(task_create.o)
 .debug_abbrev  0x000050a9      0x2d1 NuttX/nuttx/sched/libsched.a(task_setup.o)
 .debug_abbrev  0x0000537a      0x24d NuttX/nuttx/sched/libsched.a(task_activate.o)
 .debug_abbrev  0x000055c7      0x195 NuttX/nuttx/sched/libsched.a(task_start.o)
 .debug_abbrev  0x0000575c      0x169 NuttX/nuttx/sched/libsched.a(task_getpid.o)
 .debug_abbrev  0x000058c5      0x1ae NuttX/nuttx/sched/libsched.a(exit.o)
 .debug_abbrev  0x00005a73      0x1e7 NuttX/nuttx/sched/libsched.a(group_create.o)
 .debug_abbrev  0x00005c5a      0x1bc NuttX/nuttx/sched/libsched.a(group_setupidlefiles.o)
 .debug_abbrev  0x00005e16      0x183 NuttX/nuttx/sched/libsched.a(group_setuptaskfiles.o)
 .debug_abbrev  0x00005f99       0xc3 NuttX/nuttx/sched/libsched.a(irq_initialize.o)
 .debug_abbrev  0x0000605c      0x224 NuttX/nuttx/sched/libsched.a(sched_releasetcb.o)
 .debug_abbrev  0x00006280      0x185 NuttX/nuttx/sched/libsched.a(sched_lock.o)
 .debug_abbrev  0x00006405      0x256 NuttX/nuttx/sched/libsched.a(sched_unlock.o)
 .debug_abbrev  0x0000665b      0x19a NuttX/nuttx/sched/libsched.a(task_exithook.o)
 .debug_abbrev  0x000067f5      0x18e NuttX/nuttx/sched/libsched.a(task_recover.o)
 .debug_abbrev  0x00006983      0x249 NuttX/nuttx/sched/libsched.a(wd_recover.o)
 .debug_abbrev  0x00006bcc      0x1e1 NuttX/nuttx/sched/libsched.a(group_leave.o)
 .debug_abbrev  0x00006dad      0x1dd NuttX/nuttx/sched/libsched.a(sched_free.o)
 .debug_abbrev  0x00006f8a      0x25d NuttX/nuttx/sched/libsched.a(sem_recover.o)
 .debug_abbrev  0x000071e7      0x1f6 NuttX/nuttx/sched/libsched.a(wd_cancel.o)
 .debug_abbrev  0x000073dd      0x210 NuttX/nuttx/sched/libsched.a(wd_delete.o)
 .debug_abbrev  0x000075ed      0x11f NuttX/nuttx/sched/libsched.a(wd_initialize.o)
 .debug_abbrev  0x0000770c       0x7c src/drivers/boards/px4io-v2/libdrivers__boards__px4io-v2.a(px4io_init.c.obj)
 .debug_abbrev  0x00007788      0x2c2 src/modules/px4iofirmware/libmodules__px4iofirmware.a(px4io.c.obj)
 .debug_abbrev  0x00007a4a      0x228 src/modules/px4iofirmware/libmodules__px4iofirmware.a(registers.c.obj)
 .debug_abbrev  0x00007c72      0x28b src/modules/px4iofirmware/libmodules__px4iofirmware.a(safety.c.obj)
 .debug_abbrev  0x00007efd      0x27b src/modules/px4iofirmware/libmodules__px4iofirmware.a(serial.c.obj)
 .debug_abbrev  0x00008178      0x33d src/modules/px4iofirmware/libmodules__px4iofirmware.a(perf_counter.c.obj)
 .debug_abbrev  0x000084b5      0x151 src/modules/px4iofirmware/libmodules__px4iofirmware.a(pwm_limit.c.obj)
 .debug_abbrev  0x00008606      0x11c src/modules/px4iofirmware/libmodules__px4iofirmware.a(adc.c.obj)
 .debug_abbrev  0x00008722      0x2cb src/modules/px4iofirmware/libmodules__px4iofirmware.a(controls.c.obj)
 .debug_abbrev  0x000089ed      0x4a8 src/modules/px4iofirmware/libmodules__px4iofirmware.a(mixer.cpp.obj)
 .debug_abbrev  0x00008e95      0x4b5 src/modules/systemlib/mixer/libmodules__systemlib__mixer.a(mixer_group.cpp.obj)
 .debug_abbrev  0x0000934a      0x56a src/modules/systemlib/mixer/libmodules__systemlib__mixer.a(mixer_helicopter.cpp.obj)
 .debug_abbrev  0x000098b4      0x67d src/modules/systemlib/mixer/libmodules__systemlib__mixer.a(mixer_multirotor.cpp.obj)
 .debug_abbrev  0x00009f31      0x5d3 src/modules/systemlib/mixer/libmodules__systemlib__mixer.a(mixer_simple.cpp.obj)
 .debug_abbrev  0x0000a504      0x49b src/modules/systemlib/mixer/libmodules__systemlib__mixer.a(mixer.cpp.obj)
 .debug_abbrev  0x0000a99f       0x88 NuttX/apps/libapps.a(gnu_cxxinitialize.o)
 .debug_abbrev  0x0000aa27       0x95 NuttX/nuttx/arch/arm/src/libarch.a(stm32_allocateheap.o)
 .debug_abbrev  0x0000aabc       0x42 NuttX/nuttx/arch/arm/src/libarch.a(stm32_idle.o)
 .debug_abbrev  0x0000aafe      0x207 NuttX/nuttx/arch/arm/src/libarch.a(up_blocktask.o)
 .debug_abbrev  0x0000ad05       0x85 NuttX/nuttx/arch/arm/src/libarch.a(up_copyfullstate.o)
 .debug_abbrev  0x0000ad8a      0x217 NuttX/nuttx/arch/arm/src/libarch.a(up_createstack.o)
 .debug_abbrev  0x0000afa1       0x69 NuttX/nuttx/arch/arm/src/libarch.a(up_mdelay.o)
 .debug_abbrev  0x0000b00a       0x74 NuttX/nuttx/arch/arm/src/libarch.a(up_udelay.o)
 .debug_abbrev  0x0000b07e      0x24e NuttX/nuttx/arch/arm/src/libarch.a(up_exit.o)
 .debug_abbrev  0x0000b2cc       0xe5 NuttX/nuttx/arch/arm/src/libarch.a(up_initialize.o)
 .debug_abbrev  0x0000b3b1      0x189 NuttX/nuttx/arch/arm/src/libarch.a(up_initialstate.o)
 .debug_abbrev  0x0000b53a       0x84 NuttX/nuttx/arch/arm/src/libarch.a(up_interruptcontext.o)
 .debug_abbrev  0x0000b5be      0x1b1 NuttX/nuttx/arch/arm/src/libarch.a(up_releasepending.o)
 .debug_abbrev  0x0000b76f      0x172 NuttX/nuttx/arch/arm/src/libarch.a(up_releasestack.o)
 .debug_abbrev  0x0000b8e1      0x174 NuttX/nuttx/arch/arm/src/libarch.a(up_stackframe.o)
 .debug_abbrev  0x0000ba55       0x61 NuttX/nuttx/arch/arm/src/libarch.a(up_systemreset.o)
 .debug_abbrev  0x0000bab6      0x1f8 NuttX/nuttx/arch/arm/src/libarch.a(up_unblocktask.o)
 .debug_abbrev  0x0000bcae       0x14 NuttX/nuttx/arch/arm/src/libarch.a(up_fullcontextrestore.o)
 .debug_abbrev  0x0000bcc2       0x14 NuttX/nuttx/arch/arm/src/libarch.a(up_switchcontext.o)
 .debug_abbrev  0x0000bcd6      0x10e NuttX/nuttx/arch/arm/src/libarch.a(stm32_timerisr.o)
 .debug_abbrev  0x0000bde4       0xd8 NuttX/nuttx/libc/libc.a(lib_crc32.o)
 .debug_abbrev  0x0000bebc       0x87 NuttX/nuttx/libc/libc.a(sq_addlast.o)
 .debug_abbrev  0x0000bf43       0x87 NuttX/nuttx/libc/libc.a(sq_addfirst.o)
 .debug_abbrev  0x0000bfca       0xbe NuttX/nuttx/libc/libc.a(sq_rem.o)
 .debug_abbrev  0x0000c088       0x98 NuttX/nuttx/libc/libc.a(sq_remfirst.o)
 .debug_abbrev  0x0000c120       0x98 NuttX/nuttx/libc/libc.a(sq_remafter.o)
 .debug_abbrev  0x0000c1b8       0x87 NuttX/nuttx/libc/libc.a(dq_addfirst.o)
 .debug_abbrev  0x0000c23f       0xa5 NuttX/nuttx/libc/libc.a(dq_rem.o)
 .debug_abbrev  0x0000c2e4       0xca NuttX/nuttx/libc/libc.a(sem_setprotocol.o)
 .debug_abbrev  0x0000c3ae       0xd1 NuttX/nuttx/libc/libc.a(lib_printf.o)
 .debug_abbrev  0x0000c47f      0x168 NuttX/nuttx/libc/libc.a(lib_vsnprintf.o)
 .debug_abbrev  0x0000c5e7      0x2d7 NuttX/nuttx/libc/libc.a(lib_libvsprintf.o)
 .debug_abbrev  0x0000c8be      0x101 NuttX/nuttx/libc/libc.a(lib_memoutstream.o)
 .debug_abbrev  0x0000c9bf       0xd6 NuttX/nuttx/libc/libc.a(lib_nulloutstream.o)
 .debug_abbrev  0x0000ca95      0x1f4 NuttX/nuttx/libc/libc.a(lib_sscanf.o)
 .debug_abbrev  0x0000cc89       0xb1 NuttX/nuttx/libc/libc.a(lib_libnoflush.o)
 .debug_abbrev  0x0000cd3a       0xc5 NuttX/nuttx/libc/libc.a(lib_strtol.o)
 .debug_abbrev  0x0000cdff       0xc9 NuttX/nuttx/libc/libc.a(lib_strtoul.o)
 .debug_abbrev  0x0000cec8       0x9c NuttX/nuttx/libc/libc.a(lib_checkbase.o)
 .debug_abbrev  0x0000cf64       0x8b NuttX/nuttx/libc/libc.a(lib_isbasedigit.o)
 .debug_abbrev  0x0000cfef       0x9d NuttX/nuttx/libc/libc.a(lib_memset.o)
 .debug_abbrev  0x0000d08c       0x9a NuttX/nuttx/libc/libc.a(lib_memchr.o)
 .debug_abbrev  0x0000d126       0xb1 NuttX/nuttx/libc/libc.a(lib_memmove.o)
 .debug_abbrev  0x0000d1d7       0xaa NuttX/nuttx/libc/libc.a(lib_skipspace.o)
 .debug_abbrev  0x0000d281       0x74 NuttX/nuttx/libc/libc.a(lib_strchr.o)
 .debug_abbrev  0x0000d2f5       0x74 NuttX/nuttx/libc/libc.a(lib_strcmp.o)
 .debug_abbrev  0x0000d369       0xc5 NuttX/nuttx/libc/libc.a(lib_strcspn.o)
 .debug_abbrev  0x0000d42e       0x8e NuttX/nuttx/libc/libc.a(lib_strlen.o)
 .debug_abbrev  0x0000d4bc       0x9d NuttX/nuttx/libc/libc.a(lib_strnlen.o)
 .debug_abbrev  0x0000d559       0x9d NuttX/nuttx/libc/libc.a(lib_strncpy.o)
 .debug_abbrev  0x0000d5f6       0x6d NuttX/nuttx/libxx/libcxx.a(libxx_cxapurevirtual.o)
 .debug_abbrev  0x0000d663      0x17c NuttX/nuttx/libxx/libcxx.a(libxx_eabi_atexit.o)
 .debug_abbrev  0x0000d7df      0x180 NuttX/nuttx/libxx/libcxx.a(libxx_cxa_atexit.o)
 .debug_abbrev  0x0000d95f      0x175 NuttX/nuttx/libxx/libcxx.a(libxx_delete.o)
 .debug_abbrev  0x0000dad4      0x175 NuttX/nuttx/libxx/libcxx.a(libxx_deletea.o)
 .debug_abbrev  0x0000dc49      0x184 NuttX/nuttx/libxx/libcxx.a(libxx_new.o)
 .debug_abbrev  0x0000ddcd      0x184 NuttX/nuttx/libxx/libcxx.a(libxx_newa.o)
 .debug_abbrev  0x0000df51       0x9d NuttX/nuttx/drivers/libdrivers.a(syslog_initialize.o)
 .debug_abbrev  0x0000dfee       0xf2 NuttX/nuttx/drivers/libdrivers.a(syslog_consolechannel.o)
 .debug_abbrev  0x0000e0e0      0x2c6 NuttX/nuttx/drivers/libdrivers.a(syslog_device.o)
 .debug_abbrev  0x0000e3a6       0x63 NuttX/nuttx/fs/libfs.a(fs_initialize.o)
 .debug_abbrev  0x0000e409      0x2b3 NuttX/nuttx/fs/libfs.a(fs_files.o)
 .debug_abbrev  0x0000e6bc      0x139 NuttX/nuttx/fs/libfs.a(fs_inodeaddref.o)
 .debug_abbrev  0x0000e7f5      0x166 NuttX/nuttx/fs/libfs.a(fs_inoderelease.o)
 .debug_abbrev  0x0000e95b      0x1eb NuttX/nuttx/fs/libfs.a(fs_filedetach.o)
 .debug_abbrev  0x0000eb46       0xb5 NuttX/nuttx/fs/libfs.a(fs_close.o)
 .debug_abbrev  0x0000ebfb      0x163 NuttX/nuttx/fs/libfs.a(fs_dupfd2.o)
 .debug_abbrev  0x0000ed5e      0x15f NuttX/nuttx/fs/libfs.a(fs_getfilep.o)
 .debug_abbrev  0x0000eebd      0x1cc NuttX/nuttx/fs/libfs.a(fs_open.o)
 .debug_abbrev  0x0000f089      0x1ad NuttX/nuttx/fs/libfs.a(fs_write.o)
 .debug_abbrev  0x0000f236      0x16f NuttX/nuttx/fs/libfs.a(fs_inodefind.o)
 .debug_abbrev  0x0000f3a5      0x145 NuttX/nuttx/fs/libfs.a(fs_inodefree.o)
 .debug_abbrev  0x0000f4ea       0xff NuttX/nuttx/mm/libmm.a(umm_initialize.o)
 .debug_abbrev  0x0000f5e9       0xf9 NuttX/nuttx/mm/libmm.a(umm_sem.o)
 .debug_abbrev  0x0000f6e2       0xff NuttX/nuttx/mm/libmm.a(umm_free.o)
 .debug_abbrev  0x0000f7e1       0xf7 NuttX/nuttx/mm/libmm.a(umm_mallinfo.o)
 .debug_abbrev  0x0000f8d8      0x101 NuttX/nuttx/mm/libmm.a(umm_malloc.o)
 .debug_abbrev  0x0000f9d9      0x126 NuttX/nuttx/mm/libmm.a(mm_initialize.o)
 .debug_abbrev  0x0000faff      0x124 NuttX/nuttx/mm/libmm.a(mm_free.o)
 .debug_abbrev  0x0000fc23      0x102 NuttX/nuttx/mm/libmm.a(mm_mallinfo.o)
 .debug_abbrev  0x0000fd25      0x178 NuttX/nuttx/sched/libsched.a(sched_getfiles.o)
 .debug_abbrev  0x0000fe9d      0x1d6 NuttX/nuttx/sched/libsched.a(sched_addreadytorun.o)
 .debug_abbrev  0x00010073      0x1c5 NuttX/nuttx/sched/libsched.a(sched_removereadytorun.o)
 .debug_abbrev  0x00010238      0x1bc NuttX/nuttx/sched/libsched.a(sched_addprioritized.o)
 .debug_abbrev  0x000103f4      0x1ba NuttX/nuttx/sched/libsched.a(sched_mergepending.o)
 .debug_abbrev  0x000105ae      0x1d6 NuttX/nuttx/sched/libsched.a(sched_addblocked.o)
 .debug_abbrev  0x00010784      0x1b8 NuttX/nuttx/sched/libsched.a(sched_removeblocked.o)
 .debug_abbrev  0x0001093c       0x6e NuttX/nuttx/sched/libsched.a(sched_processtimer.o)
 .debug_abbrev  0x000109aa       0xac NuttX/nuttx/sched/libsched.a(sem_destroy.o)
 .debug_abbrev  0x00010a56      0x1d8 NuttX/nuttx/sched/libsched.a(task_exit.o)
 .debug_abbrev  0x00010c2e      0x2de NuttX/nuttx/sched/libsched.a(task_terminate.o)
 .debug_abbrev  0x00010f0c      0x292 NuttX/nuttx/sched/libsched.a(wd_start.o)
 .debug_abbrev  0x0001119e      0x187 NuttX/nuttx/sched/libsched.a(sched_gettcb.o)
 .debug_abbrev  0x00011325      0x3cc src/drivers/stm32/libdrivers__stm32.a(drv_hrt.c.obj)
 .debug_abbrev  0x000116f1      0x19b src/drivers/stm32/libdrivers__stm32.a(drv_pwm_servo.c.obj)
 .debug_abbrev  0x0001188c      0x392 src/drivers/stm32/libdrivers__stm32.a(drv_io_timer.c.obj)
 .debug_abbrev  0x00011c1e      0x2b0 src/lib/rc/liblib__rc.a(st24.cpp.obj)
 .debug_abbrev  0x00011ece      0x306 src/lib/rc/liblib__rc.a(sumd.cpp.obj)
 .debug_abbrev  0x000121d4      0x426 src/lib/rc/liblib__rc.a(sbus.cpp.obj)
 .debug_abbrev  0x000125fa      0x43b src/lib/rc/liblib__rc.a(dsm.cpp.obj)
 .debug_abbrev  0x00012a35      0x1cf src/lib/rc/liblib__rc.a(common_rc.cpp.obj)
 .debug_abbrev  0x00012c04       0xb2 NuttX/nuttx/libc/libc.a(sq_addafter.o)
 .debug_abbrev  0x00012cb6       0x87 NuttX/nuttx/libc/libc.a(dq_addlast.o)
 .debug_abbrev  0x00012d3d       0xb4 NuttX/nuttx/libc/libc.a(lib_strdup.o)
 .debug_abbrev  0x00012df1       0xd5 NuttX/nuttx/libc/libc.a(lib_tcgetattr.o)
 .debug_abbrev  0x00012ec6       0xdc NuttX/nuttx/libc/libc.a(lib_tcsetattr.o)
 .debug_abbrev  0x00012fa2      0x1a8 NuttX/nuttx/fs/libfs.a(fs_ioctl.o)
 .debug_abbrev  0x0001314a      0x1a4 NuttX/nuttx/fs/libfs.a(fs_read.o)
 .debug_abbrev  0x000132ee       0xb7 src/drivers/boards/px4io-v2/libdrivers__boards__px4io-v2.a(px4io_timer_config.c.obj)

.debug_info     0x00000000    0x40d67
 *(.debug_info)
 .debug_info    0x00000000      0x1c3 NuttX/nuttx/arch/arm/src/libarch.a(stm32_start.o)
 .debug_info    0x000001c3      0x245 NuttX/nuttx/arch/arm/src/libarch.a(stm32_rcc.o)
 .debug_info    0x00000408      0x44c NuttX/nuttx/arch/arm/src/libarch.a(stm32_gpio.o)
 .debug_info    0x00000854      0x129 NuttX/nuttx/arch/arm/src/libarch.a(stm32_lowputc.o)
 .debug_info    0x0000097d     0x21d6 NuttX/nuttx/arch/arm/src/libarch.a(stm32_serial.o)
 .debug_info    0x00002b53      0x215 NuttX/nuttx/arch/arm/src/libarch.a(up_modifyreg32.o)
 .debug_info    0x00002d68       0x90 NuttX/nuttx/arch/arm/src/libarch.a(up_vectors.o)
 .debug_info    0x00002df8       0x92 NuttX/nuttx/arch/arm/src/libarch.a(up_exception.o)
 .debug_info    0x00002e8a      0x3fe NuttX/nuttx/arch/arm/src/libarch.a(stm32_irq.o)
 .debug_info    0x00003288      0x9f7 NuttX/nuttx/arch/arm/src/libarch.a(stm32_dma.o)
 .debug_info    0x00003c7f      0xd79 NuttX/nuttx/arch/arm/src/libarch.a(up_assert.o)
 .debug_info    0x000049f8      0x15b NuttX/nuttx/arch/arm/src/libarch.a(up_doirq.o)
 .debug_info    0x00004b53      0x23f NuttX/nuttx/arch/arm/src/libarch.a(up_hardfault.o)
 .debug_info    0x00004d92      0x171 NuttX/nuttx/arch/arm/src/libarch.a(up_svcall.o)
 .debug_info    0x00004f03      0x818 NuttX/nuttx/arch/arm/src/libarch.a(up_checkstack.o)
 .debug_info    0x0000571b       0x95 NuttX/nuttx/libc/libc.a(arch_memcpy.o)
 .debug_info    0x000057b0      0x11b NuttX/nuttx/libc/libc.a(sem_init.o)
 .debug_info    0x000058cb       0xbf NuttX/nuttx/libc/libc.a(lib_abort.o)
 .debug_info    0x0000598a       0xd0 NuttX/nuttx/libc/libc.a(lib_strcpy.o)
 .debug_info    0x00005a5a      0x1c3 NuttX/nuttx/libc/libc.a(lib_syslog.o)
 .debug_info    0x00005c1d      0x1e6 NuttX/nuttx/libc/libc.a(lib_setlogmask.o)
 .debug_info    0x00005e03      0x168 NuttX/nuttx/libc/libc.a(lib_cfgetspeed.o)
 .debug_info    0x00005f6b      0x170 NuttX/nuttx/libc/libc.a(lib_cfsetspeed.o)
 .debug_info    0x000060db     0x17be NuttX/nuttx/drivers/libdrivers.a(serial.o)
 .debug_info    0x00007899      0x6f4 NuttX/nuttx/drivers/libdrivers.a(serial_io.o)
 .debug_info    0x00007f8d      0x224 NuttX/nuttx/drivers/libdrivers.a(vsyslog.o)
 .debug_info    0x000081b1      0x1fa NuttX/nuttx/drivers/libdrivers.a(syslog_stream.o)
 .debug_info    0x000083ab      0x1a2 NuttX/nuttx/drivers/libdrivers.a(syslog_emergstream.o)
 .debug_info    0x0000854d      0x16b NuttX/nuttx/drivers/libdrivers.a(syslog_putc.o)
 .debug_info    0x000086b8      0x12c NuttX/nuttx/drivers/libdrivers.a(syslog_force.o)
 .debug_info    0x000087e4      0x161 NuttX/nuttx/drivers/libdrivers.a(syslog_channel.o)
 .debug_info    0x00008945      0x3d0 NuttX/nuttx/fs/libfs.a(fs_registerdriver.o)
 .debug_info    0x00008d15      0x249 NuttX/nuttx/fs/libfs.a(fs_inode.o)
 .debug_info    0x00008f5e      0x62b NuttX/nuttx/fs/libfs.a(fs_inodereserve.o)
 .debug_info    0x00009589      0x503 NuttX/nuttx/fs/libfs.a(fs_inodesearch.o)
 .debug_info    0x00009a8c      0x259 NuttX/nuttx/mm/libmm.a(umm_zalloc.o)
 .debug_info    0x00009ce5      0x208 NuttX/nuttx/mm/libmm.a(umm_globals.o)
 .debug_info    0x00009eed      0x299 NuttX/nuttx/mm/libmm.a(mm_zalloc.o)
 .debug_info    0x0000a186      0x32e NuttX/nuttx/mm/libmm.a(mm_malloc.o)
 .debug_info    0x0000a4b4      0x3c2 NuttX/nuttx/mm/libmm.a(mm_sem.o)
 .debug_info    0x0000a876      0x27b NuttX/nuttx/mm/libmm.a(mm_addfreechunk.o)
 .debug_info    0x0000aaf1       0xd8 NuttX/nuttx/mm/libmm.a(mm_size2ndx.o)
 .debug_info    0x0000abc9      0x76a NuttX/nuttx/sched/libsched.a(errno_getptr.o)
 .debug_info    0x0000b333      0xbe0 NuttX/nuttx/sched/libsched.a(os_start.o)
 .debug_info    0x0000bf13      0x1a3 NuttX/nuttx/sched/libsched.a(os_bringup.o)
 .debug_info    0x0000c0b6      0x2e8 NuttX/nuttx/sched/libsched.a(irq_attach.o)
 .debug_info    0x0000c39e      0x158 NuttX/nuttx/sched/libsched.a(irq_dispatch.o)
 .debug_info    0x0000c4f6      0x1e6 NuttX/nuttx/sched/libsched.a(irq_unexpectedisr.o)
 .debug_info    0x0000c6dc      0x2ff NuttX/nuttx/sched/libsched.a(sched_garbage.o)
 .debug_info    0x0000c9db      0x82f NuttX/nuttx/sched/libsched.a(sched_foreach.o)
 .debug_info    0x0000d20a      0x6f3 NuttX/nuttx/sched/libsched.a(sched_idletask.o)
 .debug_info    0x0000d8fd      0x8e4 NuttX/nuttx/sched/libsched.a(sem_wait.o)
 .debug_info    0x0000e1e1      0x84a NuttX/nuttx/sched/libsched.a(sem_trywait.o)
 .debug_info    0x0000ea2b      0x87e NuttX/nuttx/sched/libsched.a(sem_post.o)
 .debug_info    0x0000f2a9      0x29b NuttX/nuttx/sched/libsched.a(sem_reset.o)
 .debug_info    0x0000f544      0xa8c NuttX/nuttx/sched/libsched.a(task_create.o)
 .debug_info    0x0000ffd0      0xc49 NuttX/nuttx/sched/libsched.a(task_setup.o)
 .debug_info    0x00010c19      0x7ab NuttX/nuttx/sched/libsched.a(task_activate.o)
 .debug_info    0x000113c4      0x750 NuttX/nuttx/sched/libsched.a(task_start.o)
 .debug_info    0x00011b14      0x6f4 NuttX/nuttx/sched/libsched.a(task_getpid.o)
 .debug_info    0x00012208      0x73e NuttX/nuttx/sched/libsched.a(exit.o)
 .debug_info    0x00012946      0x727 NuttX/nuttx/sched/libsched.a(group_create.o)
 .debug_info    0x0001306d      0x750 NuttX/nuttx/sched/libsched.a(group_setupidlefiles.o)
 .debug_info    0x000137bd      0x6ca NuttX/nuttx/sched/libsched.a(group_setuptaskfiles.o)
 .debug_info    0x00013e87      0x118 NuttX/nuttx/sched/libsched.a(irq_initialize.o)
 .debug_info    0x00013f9f      0x781 NuttX/nuttx/sched/libsched.a(sched_releasetcb.o)
 .debug_info    0x00014720      0x70a NuttX/nuttx/sched/libsched.a(sched_lock.o)
 .debug_info    0x00014e2a      0x852 NuttX/nuttx/sched/libsched.a(sched_unlock.o)
 .debug_info    0x0001567c      0x6d0 NuttX/nuttx/sched/libsched.a(task_exithook.o)
 .debug_info    0x00015d4c      0x6af NuttX/nuttx/sched/libsched.a(task_recover.o)
 .debug_info    0x000163fb      0x7b7 NuttX/nuttx/sched/libsched.a(wd_recover.o)
 .debug_info    0x00016bb2      0x6f1 NuttX/nuttx/sched/libsched.a(group_leave.o)
 .debug_info    0x000172a3      0x2f0 NuttX/nuttx/sched/libsched.a(sched_free.o)
 .debug_info    0x00017593      0x7dc NuttX/nuttx/sched/libsched.a(sem_recover.o)
 .debug_info    0x00017d6f      0x3a1 NuttX/nuttx/sched/libsched.a(wd_cancel.o)
 .debug_info    0x00018110      0x3d1 NuttX/nuttx/sched/libsched.a(wd_delete.o)
 .debug_info    0x000184e1      0x267 NuttX/nuttx/sched/libsched.a(wd_initialize.o)
 .debug_info    0x00018748      0x371 src/drivers/boards/px4io-v2/libdrivers__boards__px4io-v2.a(px4io_init.c.obj)
 .debug_info    0x00018ab9      0xd76 src/modules/px4iofirmware/libmodules__px4iofirmware.a(px4io.c.obj)
 .debug_info    0x0001982f      0x994 src/modules/px4iofirmware/libmodules__px4iofirmware.a(registers.c.obj)
 .debug_info    0x0001a1c3      0x633 src/modules/px4iofirmware/libmodules__px4iofirmware.a(safety.c.obj)
 .debug_info    0x0001a7f6      0x7de src/modules/px4iofirmware/libmodules__px4iofirmware.a(serial.c.obj)
 .debug_info    0x0001afd4      0xe34 src/modules/px4iofirmware/libmodules__px4iofirmware.a(perf_counter.c.obj)
 .debug_info    0x0001be08      0x3be src/modules/px4iofirmware/libmodules__px4iofirmware.a(pwm_limit.c.obj)
 .debug_info    0x0001c1c6      0x35a src/modules/px4iofirmware/libmodules__px4iofirmware.a(adc.c.obj)
 .debug_info    0x0001c520     0x13c8 src/modules/px4iofirmware/libmodules__px4iofirmware.a(controls.c.obj)
 .debug_info    0x0001d8e8     0x1826 src/modules/px4iofirmware/libmodules__px4iofirmware.a(mixer.cpp.obj)
 .debug_info    0x0001f10e     0x1153 src/modules/systemlib/mixer/libmodules__systemlib__mixer.a(mixer_group.cpp.obj)
 .debug_info    0x00020261     0x128f src/modules/systemlib/mixer/libmodules__systemlib__mixer.a(mixer_helicopter.cpp.obj)
 .debug_info    0x000214f0     0x2263 src/modules/systemlib/mixer/libmodules__systemlib__mixer.a(mixer_multirotor.cpp.obj)
 .debug_info    0x00023753     0x1450 src/modules/systemlib/mixer/libmodules__systemlib__mixer.a(mixer_simple.cpp.obj)
 .debug_info    0x00024ba3      0xeff src/modules/systemlib/mixer/libmodules__systemlib__mixer.a(mixer.cpp.obj)
 .debug_info    0x00025aa2       0xf2 NuttX/apps/libapps.a(gnu_cxxinitialize.o)
 .debug_info    0x00025b94      0x118 NuttX/nuttx/arch/arm/src/libarch.a(stm32_allocateheap.o)
 .debug_info    0x00025cac       0xa0 NuttX/nuttx/arch/arm/src/libarch.a(stm32_idle.o)
 .debug_info    0x00025d4c      0x857 NuttX/nuttx/arch/arm/src/libarch.a(up_blocktask.o)
 .debug_info    0x000265a3       0xda NuttX/nuttx/arch/arm/src/libarch.a(up_copyfullstate.o)
 .debug_info    0x0002667d      0x76c NuttX/nuttx/arch/arm/src/libarch.a(up_createstack.o)
 .debug_info    0x00026de9       0xd0 NuttX/nuttx/arch/arm/src/libarch.a(up_mdelay.o)
 .debug_info    0x00026eb9       0xe3 NuttX/nuttx/arch/arm/src/libarch.a(up_udelay.o)
 .debug_info    0x00026f9c      0x7e6 NuttX/nuttx/arch/arm/src/libarch.a(up_exit.o)
 .debug_info    0x00027782      0x172 NuttX/nuttx/arch/arm/src/libarch.a(up_initialize.o)
 .debug_info    0x000278f4      0x6ad NuttX/nuttx/arch/arm/src/libarch.a(up_initialstate.o)
 .debug_info    0x00027fa1       0xe1 NuttX/nuttx/arch/arm/src/libarch.a(up_interruptcontext.o)
 .debug_info    0x00028082      0x776 NuttX/nuttx/arch/arm/src/libarch.a(up_releasepending.o)
 .debug_info    0x000287f8      0x698 NuttX/nuttx/arch/arm/src/libarch.a(up_releasestack.o)
 .debug_info    0x00028e90      0x691 NuttX/nuttx/arch/arm/src/libarch.a(up_stackframe.o)
 .debug_info    0x00029521       0x95 NuttX/nuttx/arch/arm/src/libarch.a(up_systemreset.o)
 .debug_info    0x000295b6      0x808 NuttX/nuttx/arch/arm/src/libarch.a(up_unblocktask.o)
 .debug_info    0x00029dbe       0x9b NuttX/nuttx/arch/arm/src/libarch.a(up_fullcontextrestore.o)
 .debug_info    0x00029e59       0x96 NuttX/nuttx/arch/arm/src/libarch.a(up_switchcontext.o)
 .debug_info    0x00029eef      0x1a0 NuttX/nuttx/arch/arm/src/libarch.a(stm32_timerisr.o)
 .debug_info    0x0002a08f      0x1ae NuttX/nuttx/libc/libc.a(lib_crc32.o)
 .debug_info    0x0002a23d      0x110 NuttX/nuttx/libc/libc.a(sq_addlast.o)
 .debug_info    0x0002a34d      0x110 NuttX/nuttx/libc/libc.a(sq_addfirst.o)
 .debug_info    0x0002a45d      0x141 NuttX/nuttx/libc/libc.a(sq_rem.o)
 .debug_info    0x0002a59e      0x116 NuttX/nuttx/libc/libc.a(sq_remfirst.o)
 .debug_info    0x0002a6b4      0x125 NuttX/nuttx/libc/libc.a(sq_remafter.o)
 .debug_info    0x0002a7d9      0x11c NuttX/nuttx/libc/libc.a(dq_addfirst.o)
 .debug_info    0x0002a8f5      0x138 NuttX/nuttx/libc/libc.a(dq_rem.o)
 .debug_info    0x0002aa2d      0x129 NuttX/nuttx/libc/libc.a(sem_setprotocol.o)
 .debug_info    0x0002ab56      0x133 NuttX/nuttx/libc/libc.a(lib_printf.o)
 .debug_info    0x0002ac89      0x2a9 NuttX/nuttx/libc/libc.a(lib_vsnprintf.o)
 .debug_info    0x0002af32      0xb35 NuttX/nuttx/libc/libc.a(lib_libvsprintf.o)
 .debug_info    0x0002ba67      0x1df NuttX/nuttx/libc/libc.a(lib_memoutstream.o)
 .debug_info    0x0002bc46      0x156 NuttX/nuttx/libc/libc.a(lib_nulloutstream.o)
 .debug_info    0x0002bd9c      0x671 NuttX/nuttx/libc/libc.a(lib_sscanf.o)
 .debug_info    0x0002c40d      0x12d NuttX/nuttx/libc/libc.a(lib_libnoflush.o)
 .debug_info    0x0002c53a      0x18f NuttX/nuttx/libc/libc.a(lib_strtol.o)
 .debug_info    0x0002c6c9      0x1a0 NuttX/nuttx/libc/libc.a(lib_strtoul.o)
 .debug_info    0x0002c869      0x108 NuttX/nuttx/libc/libc.a(lib_checkbase.o)
 .debug_info    0x0002c971       0xf7 NuttX/nuttx/libc/libc.a(lib_isbasedigit.o)
 .debug_info    0x0002ca68       0xee NuttX/nuttx/libc/libc.a(lib_memset.o)
 .debug_info    0x0002cb56       0xfe NuttX/nuttx/libc/libc.a(lib_memchr.o)
 .debug_info    0x0002cc54      0x10c NuttX/nuttx/libc/libc.a(lib_memmove.o)
 .debug_info    0x0002cd60      0x105 NuttX/nuttx/libc/libc.a(lib_skipspace.o)
 .debug_info    0x0002ce65       0xbd NuttX/nuttx/libc/libc.a(lib_strchr.o)
 .debug_info    0x0002cf22       0xc8 NuttX/nuttx/libc/libc.a(lib_strcmp.o)
 .debug_info    0x0002cfea      0x105 NuttX/nuttx/libc/libc.a(lib_strcspn.o)
 .debug_info    0x0002d0ef       0xdc NuttX/nuttx/libc/libc.a(lib_strlen.o)
 .debug_info    0x0002d1cb       0xeb NuttX/nuttx/libc/libc.a(lib_strnlen.o)
 .debug_info    0x0002d2b6      0x10c NuttX/nuttx/libc/libc.a(lib_strncpy.o)
 .debug_info    0x0002d3c2       0x98 NuttX/nuttx/libxx/libcxx.a(libxx_cxapurevirtual.o)
 .debug_info    0x0002d45a      0x505 NuttX/nuttx/libxx/libcxx.a(libxx_eabi_atexit.o)
 .debug_info    0x0002d95f      0x4e8 NuttX/nuttx/libxx/libcxx.a(libxx_cxa_atexit.o)
 .debug_info    0x0002de47      0x4bd NuttX/nuttx/libxx/libcxx.a(libxx_delete.o)
 .debug_info    0x0002e304      0x4bd NuttX/nuttx/libxx/libcxx.a(libxx_deletea.o)
 .debug_info    0x0002e7c1      0x66d NuttX/nuttx/libxx/libcxx.a(libxx_new.o)
 .debug_info    0x0002ee2e      0x66d NuttX/nuttx/libxx/libcxx.a(libxx_newa.o)
 .debug_info    0x0002f49b       0xfb NuttX/nuttx/drivers/libdrivers.a(syslog_initialize.o)
 .debug_info    0x0002f596      0x181 NuttX/nuttx/drivers/libdrivers.a(syslog_consolechannel.o)
 .debug_info    0x0002f717      0x997 NuttX/nuttx/drivers/libdrivers.a(syslog_device.o)
 .debug_info    0x000300ae       0xba NuttX/nuttx/fs/libfs.a(fs_initialize.o)
 .debug_info    0x00030168      0x837 NuttX/nuttx/fs/libfs.a(fs_files.o)
 .debug_info    0x0003099f      0x350 NuttX/nuttx/fs/libfs.a(fs_inodeaddref.o)
 .debug_info    0x00030cef      0x37a NuttX/nuttx/fs/libfs.a(fs_inoderelease.o)
 .debug_info    0x00031069      0x4c9 NuttX/nuttx/fs/libfs.a(fs_filedetach.o)
 .debug_info    0x00031532      0x116 NuttX/nuttx/fs/libfs.a(fs_close.o)
 .debug_info    0x00031648      0x3b7 NuttX/nuttx/fs/libfs.a(fs_dupfd2.o)
 .debug_info    0x000319ff      0x3e4 NuttX/nuttx/fs/libfs.a(fs_getfilep.o)
 .debug_info    0x00031de3      0x509 NuttX/nuttx/fs/libfs.a(fs_open.o)
 .debug_info    0x000322ec      0x458 NuttX/nuttx/fs/libfs.a(fs_write.o)
 .debug_info    0x00032744      0x3ee NuttX/nuttx/fs/libfs.a(fs_inodefind.o)
 .debug_info    0x00032b32      0x356 NuttX/nuttx/fs/libfs.a(fs_inodefree.o)
 .debug_info    0x00032e88      0x265 NuttX/nuttx/mm/libmm.a(umm_initialize.o)
 .debug_info    0x000330ed      0x266 NuttX/nuttx/mm/libmm.a(umm_sem.o)
 .debug_info    0x00033353      0x255 NuttX/nuttx/mm/libmm.a(umm_free.o)
 .debug_info    0x000335a8      0x29e NuttX/nuttx/mm/libmm.a(umm_mallinfo.o)
 .debug_info    0x00033846      0x259 NuttX/nuttx/mm/libmm.a(umm_malloc.o)
 .debug_info    0x00033a9f      0x35a NuttX/nuttx/mm/libmm.a(mm_initialize.o)
 .debug_info    0x00033df9      0x2e2 NuttX/nuttx/mm/libmm.a(mm_free.o)
 .debug_info    0x000340db      0x31a NuttX/nuttx/mm/libmm.a(mm_mallinfo.o)
 .debug_info    0x000343f5      0x708 NuttX/nuttx/sched/libsched.a(sched_getfiles.o)
 .debug_info    0x00034afd      0x788 NuttX/nuttx/sched/libsched.a(sched_addreadytorun.o)
 .debug_info    0x00035285      0x776 NuttX/nuttx/sched/libsched.a(sched_removereadytorun.o)
 .debug_info    0x000359fb      0x757 NuttX/nuttx/sched/libsched.a(sched_addprioritized.o)
 .debug_info    0x00036152      0x79a NuttX/nuttx/sched/libsched.a(sched_mergepending.o)
 .debug_info    0x000368ec      0x7d4 NuttX/nuttx/sched/libsched.a(sched_addblocked.o)
 .debug_info    0x000370c0      0x7a6 NuttX/nuttx/sched/libsched.a(sched_removeblocked.o)
 .debug_info    0x00037866       0xce NuttX/nuttx/sched/libsched.a(sched_processtimer.o)
 .debug_info    0x00037934      0x112 NuttX/nuttx/sched/libsched.a(sem_destroy.o)
 .debug_info    0x00037a46      0x7d0 NuttX/nuttx/sched/libsched.a(task_exit.o)
 .debug_info    0x00038216      0x96f NuttX/nuttx/sched/libsched.a(task_terminate.o)
 .debug_info    0x00038b85      0x55a NuttX/nuttx/sched/libsched.a(wd_start.o)
 .debug_info    0x000390df      0x6d8 NuttX/nuttx/sched/libsched.a(sched_gettcb.o)
 .debug_info    0x000397b7     0x103e src/drivers/stm32/libdrivers__stm32.a(drv_hrt.c.obj)
 .debug_info    0x0003a7f5      0x541 src/drivers/stm32/libdrivers__stm32.a(drv_pwm_servo.c.obj)
 .debug_info    0x0003ad36     0x13f4 src/drivers/stm32/libdrivers__stm32.a(drv_io_timer.c.obj)
 .debug_info    0x0003c12a      0x97c src/lib/rc/liblib__rc.a(st24.cpp.obj)
 .debug_info    0x0003caa6      0xa6c src/lib/rc/liblib__rc.a(sumd.cpp.obj)
 .debug_info    0x0003d512      0xf6e src/lib/rc/liblib__rc.a(sbus.cpp.obj)
 .debug_info    0x0003e480     0x1095 src/lib/rc/liblib__rc.a(dsm.cpp.obj)
 .debug_info    0x0003f515      0x688 src/lib/rc/liblib__rc.a(common_rc.cpp.obj)
 .debug_info    0x0003fb9d      0x13f NuttX/nuttx/libc/libc.a(sq_addafter.o)
 .debug_info    0x0003fcdc      0x11c NuttX/nuttx/libc/libc.a(dq_addlast.o)
 .debug_info    0x0003fdf8      0x12a NuttX/nuttx/libc/libc.a(lib_strdup.o)
 .debug_info    0x0003ff22      0x19b NuttX/nuttx/libc/libc.a(lib_tcgetattr.o)
 .debug_info    0x000400bd      0x1af NuttX/nuttx/libc/libc.a(lib_tcsetattr.o)
 .debug_info    0x0004026c      0x45c NuttX/nuttx/fs/libfs.a(fs_ioctl.o)
 .debug_info    0x000406c8      0x441 NuttX/nuttx/fs/libfs.a(fs_read.o)
 .debug_info    0x00040b09      0x25e src/drivers/boards/px4io-v2/libdrivers__boards__px4io-v2.a(px4io_timer_config.c.obj)

.debug_line     0x00000000    0x19ad2
 *(.debug_line)
 .debug_line    0x00000000      0x275 NuttX/nuttx/arch/arm/src/libarch.a(stm32_start.o)
 .debug_line    0x00000275      0x1cb NuttX/nuttx/arch/arm/src/libarch.a(stm32_rcc.o)
 .debug_line    0x00000440      0x206 NuttX/nuttx/arch/arm/src/libarch.a(stm32_gpio.o)
 .debug_line    0x00000646      0x217 NuttX/nuttx/arch/arm/src/libarch.a(stm32_lowputc.o)
 .debug_line    0x0000085d      0x88d NuttX/nuttx/arch/arm/src/libarch.a(stm32_serial.o)
 .debug_line    0x000010ea      0x17a NuttX/nuttx/arch/arm/src/libarch.a(up_modifyreg32.o)
 .debug_line    0x00001264       0x35 NuttX/nuttx/arch/arm/src/libarch.a(up_vectors.o)
 .debug_line    0x00001299       0x76 NuttX/nuttx/arch/arm/src/libarch.a(up_exception.o)
 .debug_line    0x0000130f      0x256 NuttX/nuttx/arch/arm/src/libarch.a(stm32_irq.o)
 .debug_line    0x00001565      0x324 NuttX/nuttx/arch/arm/src/libarch.a(stm32_dma.o)
 .debug_line    0x00001889      0x3e7 NuttX/nuttx/arch/arm/src/libarch.a(up_assert.o)
 .debug_line    0x00001c70      0x1bd NuttX/nuttx/arch/arm/src/libarch.a(up_doirq.o)
 .debug_line    0x00001e2d      0x17f NuttX/nuttx/arch/arm/src/libarch.a(up_hardfault.o)
 .debug_line    0x00001fac      0x17d NuttX/nuttx/arch/arm/src/libarch.a(up_svcall.o)
 .debug_line    0x00002129      0x34a NuttX/nuttx/arch/arm/src/libarch.a(up_checkstack.o)
 .debug_line    0x00002473       0xf4 NuttX/nuttx/libc/libc.a(arch_memcpy.o)
 .debug_line    0x00002567      0x11e NuttX/nuttx/libc/libc.a(sem_init.o)
 .debug_line    0x00002685       0x9c NuttX/nuttx/libc/libc.a(lib_abort.o)
 .debug_line    0x00002721       0x9f NuttX/nuttx/libc/libc.a(lib_strcpy.o)
 .debug_line    0x000027c0      0x1ff NuttX/nuttx/libc/libc.a(lib_syslog.o)
 .debug_line    0x000029bf      0x18c NuttX/nuttx/libc/libc.a(lib_setlogmask.o)
 .debug_line    0x00002b4b      0x107 NuttX/nuttx/libc/libc.a(lib_cfgetspeed.o)
 .debug_line    0x00002c52      0x108 NuttX/nuttx/libc/libc.a(lib_cfsetspeed.o)
 .debug_line    0x00002d5a      0x658 NuttX/nuttx/drivers/libdrivers.a(serial.o)
 .debug_line    0x000033b2      0x279 NuttX/nuttx/drivers/libdrivers.a(serial_io.o)
 .debug_line    0x0000362b      0x175 NuttX/nuttx/drivers/libdrivers.a(vsyslog.o)
 .debug_line    0x000037a0      0x126 NuttX/nuttx/drivers/libdrivers.a(syslog_stream.o)
 .debug_line    0x000038c6      0x123 NuttX/nuttx/drivers/libdrivers.a(syslog_emergstream.o)
 .debug_line    0x000039e9      0x174 NuttX/nuttx/drivers/libdrivers.a(syslog_putc.o)
 .debug_line    0x00003b5d       0xb8 NuttX/nuttx/drivers/libdrivers.a(syslog_force.o)
 .debug_line    0x00003c15       0xc1 NuttX/nuttx/drivers/libdrivers.a(syslog_channel.o)
 .debug_line    0x00003cd6      0x1d0 NuttX/nuttx/fs/libfs.a(fs_registerdriver.o)
 .debug_line    0x00003ea6      0x1ca NuttX/nuttx/fs/libfs.a(fs_inode.o)
 .debug_line    0x00004070      0x248 NuttX/nuttx/fs/libfs.a(fs_inodereserve.o)
 .debug_line    0x000042b8      0x231 NuttX/nuttx/fs/libfs.a(fs_inodesearch.o)
 .debug_line    0x000044e9      0x1c8 NuttX/nuttx/mm/libmm.a(umm_zalloc.o)
 .debug_line    0x000046b1      0x190 NuttX/nuttx/mm/libmm.a(umm_globals.o)
 .debug_line    0x00004841      0x1bb NuttX/nuttx/mm/libmm.a(mm_zalloc.o)
 .debug_line    0x000049fc      0x1f7 NuttX/nuttx/mm/libmm.a(mm_malloc.o)
 .debug_line    0x00004bf3      0x240 NuttX/nuttx/mm/libmm.a(mm_sem.o)
 .debug_line    0x00004e33      0x1d8 NuttX/nuttx/mm/libmm.a(mm_addfreechunk.o)
 .debug_line    0x0000500b      0x1b7 NuttX/nuttx/mm/libmm.a(mm_size2ndx.o)
 .debug_line    0x000051c2      0x2ce NuttX/nuttx/sched/libsched.a(errno_getptr.o)
 .debug_line    0x00005490      0x48b NuttX/nuttx/sched/libsched.a(os_start.o)
 .debug_line    0x0000591b      0x16b NuttX/nuttx/sched/libsched.a(os_bringup.o)
 .debug_line    0x00005a86      0x202 NuttX/nuttx/sched/libsched.a(irq_attach.o)
 .debug_line    0x00005c88       0xc1 NuttX/nuttx/sched/libsched.a(irq_dispatch.o)
 .debug_line    0x00005d49      0x172 NuttX/nuttx/sched/libsched.a(irq_unexpectedisr.o)
 .debug_line    0x00005ebb      0x225 NuttX/nuttx/sched/libsched.a(sched_garbage.o)
 .debug_line    0x000060e0      0x2bb NuttX/nuttx/sched/libsched.a(sched_foreach.o)
 .debug_line    0x0000639b      0x2bc NuttX/nuttx/sched/libsched.a(sched_idletask.o)
 .debug_line    0x00006657      0x30a NuttX/nuttx/sched/libsched.a(sem_wait.o)
 .debug_line    0x00006961      0x2df NuttX/nuttx/sched/libsched.a(sem_trywait.o)
 .debug_line    0x00006c40      0x300 NuttX/nuttx/sched/libsched.a(sem_post.o)
 .debug_line    0x00006f40      0x1fb NuttX/nuttx/sched/libsched.a(sem_reset.o)
 .debug_line    0x0000713b      0x358 NuttX/nuttx/sched/libsched.a(task_create.o)
 .debug_line    0x00007493      0x375 NuttX/nuttx/sched/libsched.a(task_setup.o)
 .debug_line    0x00007808      0x2ba NuttX/nuttx/sched/libsched.a(task_activate.o)
 .debug_line    0x00007ac2      0x2c6 NuttX/nuttx/sched/libsched.a(task_start.o)
 .debug_line    0x00007d88      0x2b7 NuttX/nuttx/sched/libsched.a(task_getpid.o)
 .debug_line    0x0000803f      0x2cf NuttX/nuttx/sched/libsched.a(exit.o)
 .debug_line    0x0000830e      0x2bc NuttX/nuttx/sched/libsched.a(group_create.o)
 .debug_line    0x000085ca      0x2bd NuttX/nuttx/sched/libsched.a(group_setupidlefiles.o)
 .debug_line    0x00008887      0x298 NuttX/nuttx/sched/libsched.a(group_setuptaskfiles.o)
 .debug_line    0x00008b1f       0xba NuttX/nuttx/sched/libsched.a(irq_initialize.o)
 .debug_line    0x00008bd9      0x2e4 NuttX/nuttx/sched/libsched.a(sched_releasetcb.o)
 .debug_line    0x00008ebd      0x2ca NuttX/nuttx/sched/libsched.a(sched_lock.o)
 .debug_line    0x00009187      0x2e8 NuttX/nuttx/sched/libsched.a(sched_unlock.o)
 .debug_line    0x0000946f      0x2bc NuttX/nuttx/sched/libsched.a(task_exithook.o)
 .debug_line    0x0000972b      0x2be NuttX/nuttx/sched/libsched.a(task_recover.o)
 .debug_line    0x000099e9      0x2a0 NuttX/nuttx/sched/libsched.a(wd_recover.o)
 .debug_line    0x00009c89      0x2a9 NuttX/nuttx/sched/libsched.a(group_leave.o)
 .debug_line    0x00009f32      0x267 NuttX/nuttx/sched/libsched.a(sched_free.o)
 .debug_line    0x0000a199      0x2a7 NuttX/nuttx/sched/libsched.a(sem_recover.o)
 .debug_line    0x0000a440      0x214 NuttX/nuttx/sched/libsched.a(wd_cancel.o)
 .debug_line    0x0000a654      0x20d NuttX/nuttx/sched/libsched.a(wd_delete.o)
 .debug_line    0x0000a861      0x16f NuttX/nuttx/sched/libsched.a(wd_initialize.o)
 .debug_line    0x0000a9d0       0xad src/drivers/boards/px4io-v2/libdrivers__boards__px4io-v2.a(px4io_init.c.obj)
 .debug_line    0x0000aa7d      0x3a8 src/modules/px4iofirmware/libmodules__px4iofirmware.a(px4io.c.obj)
 .debug_line    0x0000ae25      0x351 src/modules/px4iofirmware/libmodules__px4iofirmware.a(registers.c.obj)
 .debug_line    0x0000b176      0x1d4 src/modules/px4iofirmware/libmodules__px4iofirmware.a(safety.c.obj)
 .debug_line    0x0000b34a      0x28f src/modules/px4iofirmware/libmodules__px4iofirmware.a(serial.c.obj)
 .debug_line    0x0000b5d9      0x3c6 src/modules/px4iofirmware/libmodules__px4iofirmware.a(perf_counter.c.obj)
 .debug_line    0x0000b99f      0x167 src/modules/px4iofirmware/libmodules__px4iofirmware.a(pwm_limit.c.obj)
 .debug_line    0x0000bb06      0x161 src/modules/px4iofirmware/libmodules__px4iofirmware.a(adc.c.obj)
 .debug_line    0x0000bc67      0x485 src/modules/px4iofirmware/libmodules__px4iofirmware.a(controls.c.obj)
 .debug_line    0x0000c0ec      0x640 src/modules/px4iofirmware/libmodules__px4iofirmware.a(mixer.cpp.obj)
 .debug_line    0x0000c72c      0x2ea src/modules/systemlib/mixer/libmodules__systemlib__mixer.a(mixer_group.cpp.obj)
 .debug_line    0x0000ca16      0x33d src/modules/systemlib/mixer/libmodules__systemlib__mixer.a(mixer_helicopter.cpp.obj)
 .debug_line    0x0000cd53      0x517 src/modules/systemlib/mixer/libmodules__systemlib__mixer.a(mixer_multirotor.cpp.obj)
 .debug_line    0x0000d26a      0x338 src/modules/systemlib/mixer/libmodules__systemlib__mixer.a(mixer_simple.cpp.obj)
 .debug_line    0x0000d5a2      0x31c src/modules/systemlib/mixer/libmodules__systemlib__mixer.a(mixer.cpp.obj)
 .debug_line    0x0000d8be      0x10e NuttX/apps/libapps.a(gnu_cxxinitialize.o)
 .debug_line    0x0000d9cc      0x218 NuttX/nuttx/arch/arm/src/libarch.a(stm32_allocateheap.o)
 .debug_line    0x0000dbe4       0x9c NuttX/nuttx/arch/arm/src/libarch.a(stm32_idle.o)
 .debug_line    0x0000dc80      0x390 NuttX/nuttx/arch/arm/src/libarch.a(up_blocktask.o)
 .debug_line    0x0000e010      0x10f NuttX/nuttx/arch/arm/src/libarch.a(up_copyfullstate.o)
 .debug_line    0x0000e11f      0x344 NuttX/nuttx/arch/arm/src/libarch.a(up_createstack.o)
 .debug_line    0x0000e463       0xb7 NuttX/nuttx/arch/arm/src/libarch.a(up_mdelay.o)
 .debug_line    0x0000e51a      0x1e9 NuttX/nuttx/arch/arm/src/libarch.a(up_udelay.o)
 .debug_line    0x0000e703      0x371 NuttX/nuttx/arch/arm/src/libarch.a(up_exit.o)
 .debug_line    0x0000ea74      0x22e NuttX/nuttx/arch/arm/src/libarch.a(up_initialize.o)
 .debug_line    0x0000eca2      0x2a6 NuttX/nuttx/arch/arm/src/libarch.a(up_initialstate.o)
 .debug_line    0x0000ef48      0x169 NuttX/nuttx/arch/arm/src/libarch.a(up_interruptcontext.o)
 .debug_line    0x0000f0b1      0x375 NuttX/nuttx/arch/arm/src/libarch.a(up_releasepending.o)
 .debug_line    0x0000f426      0x2ac NuttX/nuttx/arch/arm/src/libarch.a(up_releasestack.o)
 .debug_line    0x0000f6d2      0x2cb NuttX/nuttx/arch/arm/src/libarch.a(up_stackframe.o)
 .debug_line    0x0000f99d       0xfe NuttX/nuttx/arch/arm/src/libarch.a(up_systemreset.o)
 .debug_line    0x0000fa9b      0x38b NuttX/nuttx/arch/arm/src/libarch.a(up_unblocktask.o)
 .debug_line    0x0000fe26       0x57 NuttX/nuttx/arch/arm/src/libarch.a(up_fullcontextrestore.o)
 .debug_line    0x0000fe7d       0x53 NuttX/nuttx/arch/arm/src/libarch.a(up_switchcontext.o)
 .debug_line    0x0000fed0      0x1e9 NuttX/nuttx/arch/arm/src/libarch.a(stm32_timerisr.o)
 .debug_line    0x000100b9      0x172 NuttX/nuttx/libc/libc.a(lib_crc32.o)
 .debug_line    0x0001022b       0x9c NuttX/nuttx/libc/libc.a(sq_addlast.o)
 .debug_line    0x000102c7       0x9c NuttX/nuttx/libc/libc.a(sq_addfirst.o)
 .debug_line    0x00010363       0xa6 NuttX/nuttx/libc/libc.a(sq_rem.o)
 .debug_line    0x00010409       0x9f NuttX/nuttx/libc/libc.a(sq_remfirst.o)
 .debug_line    0x000104a8       0xa9 NuttX/nuttx/libc/libc.a(sq_remafter.o)
 .debug_line    0x00010551       0x9f NuttX/nuttx/libc/libc.a(dq_addfirst.o)
 .debug_line    0x000105f0       0x9d NuttX/nuttx/libc/libc.a(dq_rem.o)
 .debug_line    0x0001068d      0x184 NuttX/nuttx/libc/libc.a(sem_setprotocol.o)
 .debug_line    0x00010811      0x110 NuttX/nuttx/libc/libc.a(lib_printf.o)
 .debug_line    0x00010921      0x226 NuttX/nuttx/libc/libc.a(lib_vsnprintf.o)
 .debug_line    0x00010b47      0x388 NuttX/nuttx/libc/libc.a(lib_libvsprintf.o)
 .debug_line    0x00010ecf      0x1d1 NuttX/nuttx/libc/libc.a(lib_memoutstream.o)
 .debug_line    0x000110a0       0xba NuttX/nuttx/libc/libc.a(lib_nulloutstream.o)
 .debug_line    0x0001115a      0x2e7 NuttX/nuttx/libc/libc.a(lib_sscanf.o)
 .debug_line    0x00011441       0xa5 NuttX/nuttx/libc/libc.a(lib_libnoflush.o)
 .debug_line    0x000114e6       0xcf NuttX/nuttx/libc/libc.a(lib_strtol.o)
 .debug_line    0x000115b5       0xc7 NuttX/nuttx/libc/libc.a(lib_strtoul.o)
 .debug_line    0x0001167c       0x82 NuttX/nuttx/libc/libc.a(lib_checkbase.o)
 .debug_line    0x000116fe       0x71 NuttX/nuttx/libc/libc.a(lib_isbasedigit.o)
 .debug_line    0x0001176f      0x16a NuttX/nuttx/libc/libc.a(lib_memset.o)
 .debug_line    0x000118d9      0x15f NuttX/nuttx/libc/libc.a(lib_memchr.o)
 .debug_line    0x00011a38      0x161 NuttX/nuttx/libc/libc.a(lib_memmove.o)
 .debug_line    0x00011b99       0xab NuttX/nuttx/libc/libc.a(lib_skipspace.o)
 .debug_line    0x00011c44       0x9d NuttX/nuttx/libc/libc.a(lib_strchr.o)
 .debug_line    0x00011ce1       0xa2 NuttX/nuttx/libc/libc.a(lib_strcmp.o)
 .debug_line    0x00011d83      0x168 NuttX/nuttx/libc/libc.a(lib_strcspn.o)
 .debug_line    0x00011eeb      0x15e NuttX/nuttx/libc/libc.a(lib_strlen.o)
 .debug_line    0x00012049      0x167 NuttX/nuttx/libc/libc.a(lib_strnlen.o)
 .debug_line    0x000121b0      0x16b NuttX/nuttx/libc/libc.a(lib_strncpy.o)
 .debug_line    0x0001231b       0xa0 NuttX/nuttx/libxx/libcxx.a(libxx_cxapurevirtual.o)
 .debug_line    0x000123bb      0x1d1 NuttX/nuttx/libxx/libcxx.a(libxx_eabi_atexit.o)
 .debug_line    0x0001258c      0x1d1 NuttX/nuttx/libxx/libcxx.a(libxx_cxa_atexit.o)
 .debug_line    0x0001275d      0x1bd NuttX/nuttx/libxx/libcxx.a(libxx_delete.o)
 .debug_line    0x0001291a      0x1be NuttX/nuttx/libxx/libcxx.a(libxx_deletea.o)
 .debug_line    0x00012ad8      0x1c8 NuttX/nuttx/libxx/libcxx.a(libxx_new.o)
 .debug_line    0x00012ca0      0x1c9 NuttX/nuttx/libxx/libcxx.a(libxx_newa.o)
 .debug_line    0x00012e69       0xbf NuttX/nuttx/drivers/libdrivers.a(syslog_initialize.o)
 .debug_line    0x00012f28       0xc3 NuttX/nuttx/drivers/libdrivers.a(syslog_consolechannel.o)
 .debug_line    0x00012feb      0x384 NuttX/nuttx/drivers/libdrivers.a(syslog_device.o)
 .debug_line    0x0001336f       0xac NuttX/nuttx/fs/libfs.a(fs_initialize.o)
 .debug_line    0x0001341b      0x365 NuttX/nuttx/fs/libfs.a(fs_files.o)
 .debug_line    0x00013780      0x1c2 NuttX/nuttx/fs/libfs.a(fs_inodeaddref.o)
 .debug_line    0x00013942      0x1d2 NuttX/nuttx/fs/libfs.a(fs_inoderelease.o)
 .debug_line    0x00013b14      0x271 NuttX/nuttx/fs/libfs.a(fs_filedetach.o)
 .debug_line    0x00013d85       0xcd NuttX/nuttx/fs/libfs.a(fs_close.o)
 .debug_line    0x00013e52      0x1d4 NuttX/nuttx/fs/libfs.a(fs_dupfd2.o)
 .debug_line    0x00014026      0x231 NuttX/nuttx/fs/libfs.a(fs_getfilep.o)
 .debug_line    0x00014257      0x222 NuttX/nuttx/fs/libfs.a(fs_open.o)
 .debug_line    0x00014479      0x204 NuttX/nuttx/fs/libfs.a(fs_write.o)
 .debug_line    0x0001467d      0x1c4 NuttX/nuttx/fs/libfs.a(fs_inodefind.o)
 .debug_line    0x00014841      0x1be NuttX/nuttx/fs/libfs.a(fs_inodefree.o)
 .debug_line    0x000149ff      0x1be NuttX/nuttx/mm/libmm.a(umm_initialize.o)
 .debug_line    0x00014bbd      0x1c8 NuttX/nuttx/mm/libmm.a(umm_sem.o)
 .debug_line    0x00014d85      0x1c3 NuttX/nuttx/mm/libmm.a(umm_free.o)
 .debug_line    0x00014f48      0x1cf NuttX/nuttx/mm/libmm.a(umm_mallinfo.o)
 .debug_line    0x00015117      0x1c8 NuttX/nuttx/mm/libmm.a(umm_malloc.o)
 .debug_line    0x000152df      0x20c NuttX/nuttx/mm/libmm.a(mm_initialize.o)
 .debug_line    0x000154eb      0x1d7 NuttX/nuttx/mm/libmm.a(mm_free.o)
 .debug_line    0x000156c2      0x1e7 NuttX/nuttx/mm/libmm.a(mm_mallinfo.o)
 .debug_line    0x000158a9      0x2af NuttX/nuttx/sched/libsched.a(sched_getfiles.o)
 .debug_line    0x00015b58      0x2c6 NuttX/nuttx/sched/libsched.a(sched_addreadytorun.o)
 .debug_line    0x00015e1e      0x2c6 NuttX/nuttx/sched/libsched.a(sched_removereadytorun.o)
 .debug_line    0x000160e4      0x2e0 NuttX/nuttx/sched/libsched.a(sched_addprioritized.o)
 .debug_line    0x000163c4      0x2ef NuttX/nuttx/sched/libsched.a(sched_mergepending.o)
 .debug_line    0x000166b3      0x2ba NuttX/nuttx/sched/libsched.a(sched_addblocked.o)
 .debug_line    0x0001696d      0x2b4 NuttX/nuttx/sched/libsched.a(sched_removeblocked.o)
 .debug_line    0x00016c21       0xd3 NuttX/nuttx/sched/libsched.a(sched_processtimer.o)
 .debug_line    0x00016cf4      0x11d NuttX/nuttx/sched/libsched.a(sem_destroy.o)
 .debug_line    0x00016e11      0x2d4 NuttX/nuttx/sched/libsched.a(task_exit.o)
 .debug_line    0x000170e5      0x2ea NuttX/nuttx/sched/libsched.a(task_terminate.o)
 .debug_line    0x000173cf      0x2d2 NuttX/nuttx/sched/libsched.a(wd_start.o)
 .debug_line    0x000176a1      0x2a7 NuttX/nuttx/sched/libsched.a(sched_gettcb.o)
 .debug_line    0x00017948      0x3e6 src/drivers/stm32/libdrivers__stm32.a(drv_hrt.c.obj)
 .debug_line    0x00017d2e      0x1ef src/drivers/stm32/libdrivers__stm32.a(drv_pwm_servo.c.obj)
 .debug_line    0x00017f1d      0x4fb src/drivers/stm32/libdrivers__stm32.a(drv_io_timer.c.obj)
 .debug_line    0x00018418      0x228 src/lib/rc/liblib__rc.a(st24.cpp.obj)
 .debug_line    0x00018640      0x260 src/lib/rc/liblib__rc.a(sumd.cpp.obj)
 .debug_line    0x000188a0      0x333 src/lib/rc/liblib__rc.a(sbus.cpp.obj)
 .debug_line    0x00018bd3      0x411 src/lib/rc/liblib__rc.a(dsm.cpp.obj)
 .debug_line    0x00018fe4      0x164 src/lib/rc/liblib__rc.a(common_rc.cpp.obj)
 .debug_line    0x00019148       0xa4 NuttX/nuttx/libc/libc.a(sq_addafter.o)
 .debug_line    0x000191ec       0x9d NuttX/nuttx/libc/libc.a(dq_addlast.o)
 .debug_line    0x00019289       0xaa NuttX/nuttx/libc/libc.a(lib_strdup.o)
 .debug_line    0x00019333      0x15f NuttX/nuttx/libc/libc.a(lib_tcgetattr.o)
 .debug_line    0x00019492      0x161 NuttX/nuttx/libc/libc.a(lib_tcsetattr.o)
 .debug_line    0x000195f3      0x1f8 NuttX/nuttx/fs/libfs.a(fs_ioctl.o)
 .debug_line    0x000197eb      0x1ff NuttX/nuttx/fs/libfs.a(fs_read.o)
 .debug_line    0x000199ea       0xe8 src/drivers/boards/px4io-v2/libdrivers__boards__px4io-v2.a(px4io_timer_config.c.obj)

.debug_pubnames
 *(.debug_pubnames)

.debug_aranges  0x00000000     0x2160
 *(.debug_aranges)
 .debug_aranges
                0x00000000       0x28 NuttX/nuttx/arch/arm/src/libarch.a(stm32_start.o)
 .debug_aranges
                0x00000028       0x20 NuttX/nuttx/arch/arm/src/libarch.a(stm32_rcc.o)
 .debug_aranges
                0x00000048       0x40 NuttX/nuttx/arch/arm/src/libarch.a(stm32_gpio.o)
 .debug_aranges
                0x00000088       0x28 NuttX/nuttx/arch/arm/src/libarch.a(stm32_lowputc.o)
 .debug_aranges
                0x000000b0      0x100 NuttX/nuttx/arch/arm/src/libarch.a(stm32_serial.o)
 .debug_aranges
                0x000001b0       0x20 NuttX/nuttx/arch/arm/src/libarch.a(up_modifyreg32.o)
 .debug_aranges
                0x000001d0       0x18 NuttX/nuttx/arch/arm/src/libarch.a(up_vectors.o)
 .debug_aranges
                0x000001e8       0x20 NuttX/nuttx/arch/arm/src/libarch.a(up_exception.o)
 .debug_aranges
                0x00000208       0x40 NuttX/nuttx/arch/arm/src/libarch.a(stm32_irq.o)
 .debug_aranges
                0x00000248       0x60 NuttX/nuttx/arch/arm/src/libarch.a(stm32_dma.o)
 .debug_aranges
                0x000002a8       0x28 NuttX/nuttx/arch/arm/src/libarch.a(up_assert.o)
 .debug_aranges
                0x000002d0       0x20 NuttX/nuttx/arch/arm/src/libarch.a(up_doirq.o)
 .debug_aranges
                0x000002f0       0x20 NuttX/nuttx/arch/arm/src/libarch.a(up_hardfault.o)
 .debug_aranges
                0x00000310       0x20 NuttX/nuttx/arch/arm/src/libarch.a(up_svcall.o)
 .debug_aranges
                0x00000330       0x38 NuttX/nuttx/arch/arm/src/libarch.a(up_checkstack.o)
 .debug_aranges
                0x00000368       0x20 NuttX/nuttx/libc/libc.a(arch_memcpy.o)
 .debug_aranges
                0x00000388       0x20 NuttX/nuttx/libc/libc.a(sem_init.o)
 .debug_aranges
                0x000003a8       0x20 NuttX/nuttx/libc/libc.a(lib_abort.o)
 .debug_aranges
                0x000003c8       0x20 NuttX/nuttx/libc/libc.a(lib_strcpy.o)
 .debug_aranges
                0x000003e8       0x28 NuttX/nuttx/libc/libc.a(lib_syslog.o)
 .debug_aranges
                0x00000410       0x20 NuttX/nuttx/libc/libc.a(lib_setlogmask.o)
 .debug_aranges
                0x00000430       0x20 NuttX/nuttx/libc/libc.a(lib_cfgetspeed.o)
 .debug_aranges
                0x00000450       0x20 NuttX/nuttx/libc/libc.a(lib_cfsetspeed.o)
 .debug_aranges
                0x00000470       0x70 NuttX/nuttx/drivers/libdrivers.a(serial.o)
 .debug_aranges
                0x000004e0       0x28 NuttX/nuttx/drivers/libdrivers.a(serial_io.o)
 .debug_aranges
                0x00000508       0x20 NuttX/nuttx/drivers/libdrivers.a(vsyslog.o)
 .debug_aranges
                0x00000528       0x28 NuttX/nuttx/drivers/libdrivers.a(syslog_stream.o)
 .debug_aranges
                0x00000550       0x28 NuttX/nuttx/drivers/libdrivers.a(syslog_emergstream.o)
 .debug_aranges
                0x00000578       0x20 NuttX/nuttx/drivers/libdrivers.a(syslog_putc.o)
 .debug_aranges
                0x00000598       0x20 NuttX/nuttx/drivers/libdrivers.a(syslog_force.o)
 .debug_aranges
                0x000005b8       0x28 NuttX/nuttx/drivers/libdrivers.a(syslog_channel.o)
 .debug_aranges
                0x000005e0       0x20 NuttX/nuttx/fs/libfs.a(fs_registerdriver.o)
 .debug_aranges
                0x00000600       0x30 NuttX/nuttx/fs/libfs.a(fs_inode.o)
 .debug_aranges
                0x00000630       0x28 NuttX/nuttx/fs/libfs.a(fs_inodereserve.o)
 .debug_aranges
                0x00000658       0x28 NuttX/nuttx/fs/libfs.a(fs_inodesearch.o)
 .debug_aranges
                0x00000680       0x20 NuttX/nuttx/mm/libmm.a(umm_zalloc.o)
 .debug_aranges
                0x000006a0       0x18 NuttX/nuttx/mm/libmm.a(umm_globals.o)
 .debug_aranges
                0x000006b8       0x20 NuttX/nuttx/mm/libmm.a(mm_zalloc.o)
 .debug_aranges
                0x000006d8       0x20 NuttX/nuttx/mm/libmm.a(mm_malloc.o)
 .debug_aranges
                0x000006f8       0x38 NuttX/nuttx/mm/libmm.a(mm_sem.o)
 .debug_aranges
                0x00000730       0x20 NuttX/nuttx/mm/libmm.a(mm_addfreechunk.o)
 .debug_aranges
                0x00000750       0x20 NuttX/nuttx/mm/libmm.a(mm_size2ndx.o)
 .debug_aranges
                0x00000770       0x20 NuttX/nuttx/sched/libsched.a(errno_getptr.o)
 .debug_aranges
                0x00000790       0x20 NuttX/nuttx/sched/libsched.a(os_start.o)
 .debug_aranges
                0x000007b0       0x20 NuttX/nuttx/sched/libsched.a(os_bringup.o)
 .debug_aranges
                0x000007d0       0x20 NuttX/nuttx/sched/libsched.a(irq_attach.o)
 .debug_aranges
                0x000007f0       0x20 NuttX/nuttx/sched/libsched.a(irq_dispatch.o)
 .debug_aranges
                0x00000810       0x20 NuttX/nuttx/sched/libsched.a(irq_unexpectedisr.o)
 .debug_aranges
                0x00000830       0x28 NuttX/nuttx/sched/libsched.a(sched_garbage.o)
 .debug_aranges
                0x00000858       0x20 NuttX/nuttx/sched/libsched.a(sched_foreach.o)
 .debug_aranges
                0x00000878       0x20 NuttX/nuttx/sched/libsched.a(sched_idletask.o)
 .debug_aranges
                0x00000898       0x20 NuttX/nuttx/sched/libsched.a(sem_wait.o)
 .debug_aranges
                0x000008b8       0x20 NuttX/nuttx/sched/libsched.a(sem_trywait.o)
 .debug_aranges
                0x000008d8       0x20 NuttX/nuttx/sched/libsched.a(sem_post.o)
 .debug_aranges
                0x000008f8       0x20 NuttX/nuttx/sched/libsched.a(sem_reset.o)
 .debug_aranges
                0x00000918       0x30 NuttX/nuttx/sched/libsched.a(task_create.o)
 .debug_aranges
                0x00000948       0x28 NuttX/nuttx/sched/libsched.a(task_setup.o)
 .debug_aranges
                0x00000970       0x20 NuttX/nuttx/sched/libsched.a(task_activate.o)
 .debug_aranges
                0x00000990       0x20 NuttX/nuttx/sched/libsched.a(task_start.o)
 .debug_aranges
                0x000009b0       0x20 NuttX/nuttx/sched/libsched.a(task_getpid.o)
 .debug_aranges
                0x000009d0       0x20 NuttX/nuttx/sched/libsched.a(exit.o)
 .debug_aranges
                0x000009f0       0x28 NuttX/nuttx/sched/libsched.a(group_create.o)
 .debug_aranges
                0x00000a18       0x20 NuttX/nuttx/sched/libsched.a(group_setupidlefiles.o)
 .debug_aranges
                0x00000a38       0x20 NuttX/nuttx/sched/libsched.a(group_setuptaskfiles.o)
 .debug_aranges
                0x00000a58       0x20 NuttX/nuttx/sched/libsched.a(irq_initialize.o)
 .debug_aranges
                0x00000a78       0x20 NuttX/nuttx/sched/libsched.a(sched_releasetcb.o)
 .debug_aranges
                0x00000a98       0x20 NuttX/nuttx/sched/libsched.a(sched_lock.o)
 .debug_aranges
                0x00000ab8       0x20 NuttX/nuttx/sched/libsched.a(sched_unlock.o)
 .debug_aranges
                0x00000ad8       0x20 NuttX/nuttx/sched/libsched.a(task_exithook.o)
 .debug_aranges
                0x00000af8       0x20 NuttX/nuttx/sched/libsched.a(task_recover.o)
 .debug_aranges
                0x00000b18       0x20 NuttX/nuttx/sched/libsched.a(wd_recover.o)
 .debug_aranges
                0x00000b38       0x20 NuttX/nuttx/sched/libsched.a(group_leave.o)
 .debug_aranges
                0x00000b58       0x20 NuttX/nuttx/sched/libsched.a(sched_free.o)
 .debug_aranges
                0x00000b78       0x20 NuttX/nuttx/sched/libsched.a(sem_recover.o)
 .debug_aranges
                0x00000b98       0x20 NuttX/nuttx/sched/libsched.a(wd_cancel.o)
 .debug_aranges
                0x00000bb8       0x20 NuttX/nuttx/sched/libsched.a(wd_delete.o)
 .debug_aranges
                0x00000bd8       0x20 NuttX/nuttx/sched/libsched.a(wd_initialize.o)
 .debug_aranges
                0x00000bf8       0x20 src/drivers/boards/px4io-v2/libdrivers__boards__px4io-v2.a(px4io_init.c.obj)
 .debug_aranges
                0x00000c18       0x30 src/modules/px4iofirmware/libmodules__px4iofirmware.a(px4io.c.obj)
 .debug_aranges
                0x00000c48       0x30 src/modules/px4iofirmware/libmodules__px4iofirmware.a(registers.c.obj)
 .debug_aranges
                0x00000c78       0x38 src/modules/px4iofirmware/libmodules__px4iofirmware.a(safety.c.obj)
 .debug_aranges
                0x00000cb0       0x38 src/modules/px4iofirmware/libmodules__px4iofirmware.a(serial.c.obj)
 .debug_aranges
                0x00000ce8       0xa8 src/modules/px4iofirmware/libmodules__px4iofirmware.a(perf_counter.c.obj)
 .debug_aranges
                0x00000d90       0x28 src/modules/px4iofirmware/libmodules__px4iofirmware.a(pwm_limit.c.obj)
 .debug_aranges
                0x00000db8       0x28 src/modules/px4iofirmware/libmodules__px4iofirmware.a(adc.c.obj)
 .debug_aranges
                0x00000de0       0x28 src/modules/px4iofirmware/libmodules__px4iofirmware.a(controls.c.obj)
 .debug_aranges
                0x00000e08       0x50 src/modules/px4iofirmware/libmodules__px4iofirmware.a(mixer.cpp.obj)
 .debug_aranges
                0x00000e58       0x98 src/modules/systemlib/mixer/libmodules__systemlib__mixer.a(mixer_group.cpp.obj)
 .debug_aranges
                0x00000ef0       0x68 src/modules/systemlib/mixer/libmodules__systemlib__mixer.a(mixer_helicopter.cpp.obj)
 .debug_aranges
                0x00000f58       0x80 src/modules/systemlib/mixer/libmodules__systemlib__mixer.a(mixer_multirotor.cpp.obj)
 .debug_aranges
                0x00000fd8       0x88 src/modules/systemlib/mixer/libmodules__systemlib__mixer.a(mixer_simple.cpp.obj)
 .debug_aranges
                0x00001060       0xa8 src/modules/systemlib/mixer/libmodules__systemlib__mixer.a(mixer.cpp.obj)
 .debug_aranges
                0x00001108       0x20 NuttX/apps/libapps.a(gnu_cxxinitialize.o)
 .debug_aranges
                0x00001128       0x20 NuttX/nuttx/arch/arm/src/libarch.a(stm32_allocateheap.o)
 .debug_aranges
                0x00001148       0x20 NuttX/nuttx/arch/arm/src/libarch.a(stm32_idle.o)
 .debug_aranges
                0x00001168       0x20 NuttX/nuttx/arch/arm/src/libarch.a(up_blocktask.o)
 .debug_aranges
                0x00001188       0x20 NuttX/nuttx/arch/arm/src/libarch.a(up_copyfullstate.o)
 .debug_aranges
                0x000011a8       0x28 NuttX/nuttx/arch/arm/src/libarch.a(up_createstack.o)
 .debug_aranges
                0x000011d0       0x20 NuttX/nuttx/arch/arm/src/libarch.a(up_mdelay.o)
 .debug_aranges
                0x000011f0       0x20 NuttX/nuttx/arch/arm/src/libarch.a(up_udelay.o)
 .debug_aranges
                0x00001210       0x20 NuttX/nuttx/arch/arm/src/libarch.a(up_exit.o)
 .debug_aranges
                0x00001230       0x20 NuttX/nuttx/arch/arm/src/libarch.a(up_initialize.o)
 .debug_aranges
                0x00001250       0x20 NuttX/nuttx/arch/arm/src/libarch.a(up_initialstate.o)
 .debug_aranges
                0x00001270       0x20 NuttX/nuttx/arch/arm/src/libarch.a(up_interruptcontext.o)
 .debug_aranges
                0x00001290       0x20 NuttX/nuttx/arch/arm/src/libarch.a(up_releasepending.o)
 .debug_aranges
                0x000012b0       0x20 NuttX/nuttx/arch/arm/src/libarch.a(up_releasestack.o)
 .debug_aranges
                0x000012d0       0x20 NuttX/nuttx/arch/arm/src/libarch.a(up_stackframe.o)
 .debug_aranges
                0x000012f0       0x20 NuttX/nuttx/arch/arm/src/libarch.a(up_systemreset.o)
 .debug_aranges
                0x00001310       0x20 NuttX/nuttx/arch/arm/src/libarch.a(up_unblocktask.o)
 .debug_aranges
                0x00001330       0x20 NuttX/nuttx/arch/arm/src/libarch.a(up_fullcontextrestore.o)
 .debug_aranges
                0x00001350       0x20 NuttX/nuttx/arch/arm/src/libarch.a(up_switchcontext.o)
 .debug_aranges
                0x00001370       0x28 NuttX/nuttx/arch/arm/src/libarch.a(stm32_timerisr.o)
 .debug_aranges
                0x00001398       0x28 NuttX/nuttx/libc/libc.a(lib_crc32.o)
 .debug_aranges
                0x000013c0       0x20 NuttX/nuttx/libc/libc.a(sq_addlast.o)
 .debug_aranges
                0x000013e0       0x20 NuttX/nuttx/libc/libc.a(sq_addfirst.o)
 .debug_aranges
                0x00001400       0x20 NuttX/nuttx/libc/libc.a(sq_rem.o)
 .debug_aranges
                0x00001420       0x20 NuttX/nuttx/libc/libc.a(sq_remfirst.o)
 .debug_aranges
                0x00001440       0x20 NuttX/nuttx/libc/libc.a(sq_remafter.o)
 .debug_aranges
                0x00001460       0x20 NuttX/nuttx/libc/libc.a(dq_addfirst.o)
 .debug_aranges
                0x00001480       0x20 NuttX/nuttx/libc/libc.a(dq_rem.o)
 .debug_aranges
                0x000014a0       0x20 NuttX/nuttx/libc/libc.a(sem_setprotocol.o)
 .debug_aranges
                0x000014c0       0x20 NuttX/nuttx/libc/libc.a(lib_printf.o)
 .debug_aranges
                0x000014e0       0x20 NuttX/nuttx/libc/libc.a(lib_vsnprintf.o)
 .debug_aranges
                0x00001500       0x50 NuttX/nuttx/libc/libc.a(lib_libvsprintf.o)
 .debug_aranges
                0x00001550       0x28 NuttX/nuttx/libc/libc.a(lib_memoutstream.o)
 .debug_aranges
                0x00001578       0x28 NuttX/nuttx/libc/libc.a(lib_nulloutstream.o)
 .debug_aranges
                0x000015a0       0x30 NuttX/nuttx/libc/libc.a(lib_sscanf.o)
 .debug_aranges
                0x000015d0       0x20 NuttX/nuttx/libc/libc.a(lib_libnoflush.o)
 .debug_aranges
                0x000015f0       0x20 NuttX/nuttx/libc/libc.a(lib_strtol.o)
 .debug_aranges
                0x00001610       0x20 NuttX/nuttx/libc/libc.a(lib_strtoul.o)
 .debug_aranges
                0x00001630       0x20 NuttX/nuttx/libc/libc.a(lib_checkbase.o)
 .debug_aranges
                0x00001650       0x20 NuttX/nuttx/libc/libc.a(lib_isbasedigit.o)
 .debug_aranges
                0x00001670       0x20 NuttX/nuttx/libc/libc.a(lib_memset.o)
 .debug_aranges
                0x00001690       0x20 NuttX/nuttx/libc/libc.a(lib_memchr.o)
 .debug_aranges
                0x000016b0       0x20 NuttX/nuttx/libc/libc.a(lib_memmove.o)
 .debug_aranges
                0x000016d0       0x20 NuttX/nuttx/libc/libc.a(lib_skipspace.o)
 .debug_aranges
                0x000016f0       0x20 NuttX/nuttx/libc/libc.a(lib_strchr.o)
 .debug_aranges
                0x00001710       0x20 NuttX/nuttx/libc/libc.a(lib_strcmp.o)
 .debug_aranges
                0x00001730       0x20 NuttX/nuttx/libc/libc.a(lib_strcspn.o)
 .debug_aranges
                0x00001750       0x20 NuttX/nuttx/libc/libc.a(lib_strlen.o)
 .debug_aranges
                0x00001770       0x20 NuttX/nuttx/libc/libc.a(lib_strnlen.o)
 .debug_aranges
                0x00001790       0x20 NuttX/nuttx/libc/libc.a(lib_strncpy.o)
 .debug_aranges
                0x000017b0       0x20 NuttX/nuttx/libxx/libcxx.a(libxx_cxapurevirtual.o)
 .debug_aranges
                0x000017d0       0x20 NuttX/nuttx/libxx/libcxx.a(libxx_eabi_atexit.o)
 .debug_aranges
                0x000017f0       0x20 NuttX/nuttx/libxx/libcxx.a(libxx_cxa_atexit.o)
 .debug_aranges
                0x00001810       0x20 NuttX/nuttx/libxx/libcxx.a(libxx_delete.o)
 .debug_aranges
                0x00001830       0x20 NuttX/nuttx/libxx/libcxx.a(libxx_deletea.o)
 .debug_aranges
                0x00001850       0x20 NuttX/nuttx/libxx/libcxx.a(libxx_new.o)
 .debug_aranges
                0x00001870       0x20 NuttX/nuttx/libxx/libcxx.a(libxx_newa.o)
 .debug_aranges
                0x00001890       0x20 NuttX/nuttx/drivers/libdrivers.a(syslog_initialize.o)
 .debug_aranges
                0x000018b0       0x20 NuttX/nuttx/drivers/libdrivers.a(syslog_consolechannel.o)
 .debug_aranges
                0x000018d0       0x48 NuttX/nuttx/drivers/libdrivers.a(syslog_device.o)
 .debug_aranges
                0x00001918       0x20 NuttX/nuttx/fs/libfs.a(fs_initialize.o)
 .debug_aranges
                0x00001938       0x60 NuttX/nuttx/fs/libfs.a(fs_files.o)
 .debug_aranges
                0x00001998       0x20 NuttX/nuttx/fs/libfs.a(fs_inodeaddref.o)
 .debug_aranges
                0x000019b8       0x20 NuttX/nuttx/fs/libfs.a(fs_inoderelease.o)
 .debug_aranges
                0x000019d8       0x28 NuttX/nuttx/fs/libfs.a(fs_filedetach.o)
 .debug_aranges
                0x00001a00       0x20 NuttX/nuttx/fs/libfs.a(fs_close.o)
 .debug_aranges
                0x00001a20       0x20 NuttX/nuttx/fs/libfs.a(fs_dupfd2.o)
 .debug_aranges
                0x00001a40       0x20 NuttX/nuttx/fs/libfs.a(fs_getfilep.o)
 .debug_aranges
                0x00001a60       0x28 NuttX/nuttx/fs/libfs.a(fs_open.o)
 .debug_aranges
                0x00001a88       0x28 NuttX/nuttx/fs/libfs.a(fs_write.o)
 .debug_aranges
                0x00001ab0       0x20 NuttX/nuttx/fs/libfs.a(fs_inodefind.o)
 .debug_aranges
                0x00001ad0       0x20 NuttX/nuttx/fs/libfs.a(fs_inodefree.o)
 .debug_aranges
                0x00001af0       0x20 NuttX/nuttx/mm/libmm.a(umm_initialize.o)
 .debug_aranges
                0x00001b10       0x28 NuttX/nuttx/mm/libmm.a(umm_sem.o)
 .debug_aranges
                0x00001b38       0x20 NuttX/nuttx/mm/libmm.a(umm_free.o)
 .debug_aranges
                0x00001b58       0x20 NuttX/nuttx/mm/libmm.a(umm_mallinfo.o)
 .debug_aranges
                0x00001b78       0x20 NuttX/nuttx/mm/libmm.a(umm_malloc.o)
 .debug_aranges
                0x00001b98       0x28 NuttX/nuttx/mm/libmm.a(mm_initialize.o)
 .debug_aranges
                0x00001bc0       0x20 NuttX/nuttx/mm/libmm.a(mm_free.o)
 .debug_aranges
                0x00001be0       0x20 NuttX/nuttx/mm/libmm.a(mm_mallinfo.o)
 .debug_aranges
                0x00001c00       0x20 NuttX/nuttx/sched/libsched.a(sched_getfiles.o)
 .debug_aranges
                0x00001c20       0x20 NuttX/nuttx/sched/libsched.a(sched_addreadytorun.o)
 .debug_aranges
                0x00001c40       0x20 NuttX/nuttx/sched/libsched.a(sched_removereadytorun.o)
 .debug_aranges
                0x00001c60       0x20 NuttX/nuttx/sched/libsched.a(sched_addprioritized.o)
 .debug_aranges
                0x00001c80       0x20 NuttX/nuttx/sched/libsched.a(sched_mergepending.o)
 .debug_aranges
                0x00001ca0       0x20 NuttX/nuttx/sched/libsched.a(sched_addblocked.o)
 .debug_aranges
                0x00001cc0       0x20 NuttX/nuttx/sched/libsched.a(sched_removeblocked.o)
 .debug_aranges
                0x00001ce0       0x20 NuttX/nuttx/sched/libsched.a(sched_processtimer.o)
 .debug_aranges
                0x00001d00       0x20 NuttX/nuttx/sched/libsched.a(sem_destroy.o)
 .debug_aranges
                0x00001d20       0x20 NuttX/nuttx/sched/libsched.a(task_exit.o)
 .debug_aranges
                0x00001d40       0x20 NuttX/nuttx/sched/libsched.a(task_terminate.o)
 .debug_aranges
                0x00001d60       0x28 NuttX/nuttx/sched/libsched.a(wd_start.o)
 .debug_aranges
                0x00001d88       0x20 NuttX/nuttx/sched/libsched.a(sched_gettcb.o)
 .debug_aranges
                0x00001da8       0xa0 src/drivers/stm32/libdrivers__stm32.a(drv_hrt.c.obj)
 .debug_aranges
                0x00001e48       0x60 src/drivers/stm32/libdrivers__stm32.a(drv_pwm_servo.c.obj)
 .debug_aranges
                0x00001ea8       0x90 src/drivers/stm32/libdrivers__stm32.a(drv_io_timer.c.obj)
 .debug_aranges
                0x00001f38       0x28 src/lib/rc/liblib__rc.a(st24.cpp.obj)
 .debug_aranges
                0x00001f60       0x30 src/lib/rc/liblib__rc.a(sumd.cpp.obj)
 .debug_aranges
                0x00001f90       0x58 src/lib/rc/liblib__rc.a(sbus.cpp.obj)
 .debug_aranges
                0x00001fe8       0x58 src/lib/rc/liblib__rc.a(dsm.cpp.obj)
 .debug_aranges
                0x00002040       0x18 src/lib/rc/liblib__rc.a(common_rc.cpp.obj)
 .debug_aranges
                0x00002058       0x20 NuttX/nuttx/libc/libc.a(sq_addafter.o)
 .debug_aranges
                0x00002078       0x20 NuttX/nuttx/libc/libc.a(dq_addlast.o)
 .debug_aranges
                0x00002098       0x20 NuttX/nuttx/libc/libc.a(lib_strdup.o)
 .debug_aranges
                0x000020b8       0x20 NuttX/nuttx/libc/libc.a(lib_tcgetattr.o)
 .debug_aranges
                0x000020d8       0x20 NuttX/nuttx/libc/libc.a(lib_tcsetattr.o)
 .debug_aranges
                0x000020f8       0x28 NuttX/nuttx/fs/libfs.a(fs_ioctl.o)
 .debug_aranges
                0x00002120       0x28 NuttX/nuttx/fs/libfs.a(fs_read.o)
 .debug_aranges
                0x00002148       0x18 src/drivers/boards/px4io-v2/libdrivers__boards__px4io-v2.a(px4io_timer_config.c.obj)
OUTPUT(nuttx_px4io-v2_default.elf elf32-littlearm)

.debug_loc      0x00000000    0x12006
 .debug_loc     0x00000000       0x4e NuttX/nuttx/arch/arm/src/libarch.a(stm32_start.o)
 .debug_loc     0x0000004e       0xde NuttX/nuttx/arch/arm/src/libarch.a(stm32_rcc.o)
 .debug_loc     0x0000012c      0x450 NuttX/nuttx/arch/arm/src/libarch.a(stm32_gpio.o)
 .debug_loc     0x0000057c       0x89 NuttX/nuttx/arch/arm/src/libarch.a(stm32_lowputc.o)
 .debug_loc     0x00000605     0x1577 NuttX/nuttx/arch/arm/src/libarch.a(stm32_serial.o)
 .debug_loc     0x00001b7c       0x7f NuttX/nuttx/arch/arm/src/libarch.a(up_modifyreg32.o)
 .debug_loc     0x00001bfb      0x23b NuttX/nuttx/arch/arm/src/libarch.a(stm32_irq.o)
 .debug_loc     0x00001e36      0x83c NuttX/nuttx/arch/arm/src/libarch.a(stm32_dma.o)
 .debug_loc     0x00002672      0x197 NuttX/nuttx/arch/arm/src/libarch.a(up_assert.o)
 .debug_loc     0x00002809       0x68 NuttX/nuttx/arch/arm/src/libarch.a(up_doirq.o)
 .debug_loc     0x00002871       0x77 NuttX/nuttx/arch/arm/src/libarch.a(up_hardfault.o)
 .debug_loc     0x000028e8      0x180 NuttX/nuttx/arch/arm/src/libarch.a(up_svcall.o)
 .debug_loc     0x00002a68      0x119 NuttX/nuttx/arch/arm/src/libarch.a(up_checkstack.o)
 .debug_loc     0x00002b81       0x95 NuttX/nuttx/libc/libc.a(sem_init.o)
 .debug_loc     0x00002c16       0x3e NuttX/nuttx/libc/libc.a(lib_strcpy.o)
 .debug_loc     0x00002c54       0xcb NuttX/nuttx/libc/libc.a(lib_syslog.o)
 .debug_loc     0x00002d1f       0x35 NuttX/nuttx/libc/libc.a(lib_setlogmask.o)
 .debug_loc     0x00002d54       0x21 NuttX/nuttx/libc/libc.a(lib_cfgetspeed.o)
 .debug_loc     0x00002d75       0x21 NuttX/nuttx/libc/libc.a(lib_cfsetspeed.o)
 .debug_loc     0x00002d96      0xa4b NuttX/nuttx/drivers/libdrivers.a(serial.o)
 .debug_loc     0x000037e1      0x160 NuttX/nuttx/drivers/libdrivers.a(serial_io.o)
 .debug_loc     0x00003941       0xa2 NuttX/nuttx/drivers/libdrivers.a(vsyslog.o)
 .debug_loc     0x000039e3       0x5c NuttX/nuttx/drivers/libdrivers.a(syslog_stream.o)
 .debug_loc     0x00003a3f       0x5c NuttX/nuttx/drivers/libdrivers.a(syslog_emergstream.o)
 .debug_loc     0x00003a9b       0x37 NuttX/nuttx/drivers/libdrivers.a(syslog_putc.o)
 .debug_loc     0x00003ad2       0x21 NuttX/nuttx/drivers/libdrivers.a(syslog_force.o)
 .debug_loc     0x00003af3       0x3b NuttX/nuttx/drivers/libdrivers.a(syslog_channel.o)
 .debug_loc     0x00003b2e       0xa7 NuttX/nuttx/fs/libfs.a(fs_registerdriver.o)
 .debug_loc     0x00003bd5       0x13 NuttX/nuttx/fs/libfs.a(fs_inode.o)
 .debug_loc     0x00003be8      0x352 NuttX/nuttx/fs/libfs.a(fs_inodereserve.o)
 .debug_loc     0x00003f3a      0x2b5 NuttX/nuttx/fs/libfs.a(fs_inodesearch.o)
 .debug_loc     0x000041ef       0x2c NuttX/nuttx/mm/libmm.a(umm_zalloc.o)
 .debug_loc     0x0000421b       0x5d NuttX/nuttx/mm/libmm.a(mm_zalloc.o)
 .debug_loc     0x00004278      0x172 NuttX/nuttx/mm/libmm.a(mm_malloc.o)
 .debug_loc     0x000043ea       0xba NuttX/nuttx/mm/libmm.a(mm_sem.o)
 .debug_loc     0x000044a4       0x97 NuttX/nuttx/mm/libmm.a(mm_addfreechunk.o)
 .debug_loc     0x0000453b       0x62 NuttX/nuttx/mm/libmm.a(mm_size2ndx.o)
 .debug_loc     0x0000459d       0x20 NuttX/nuttx/sched/libsched.a(errno_getptr.o)
 .debug_loc     0x000045bd       0x3f NuttX/nuttx/sched/libsched.a(os_start.o)
 .debug_loc     0x000045fc       0x13 NuttX/nuttx/sched/libsched.a(os_bringup.o)
 .debug_loc     0x0000460f      0x150 NuttX/nuttx/sched/libsched.a(irq_attach.o)
 .debug_loc     0x0000475f       0x55 NuttX/nuttx/sched/libsched.a(irq_dispatch.o)
 .debug_loc     0x000047b4       0x77 NuttX/nuttx/sched/libsched.a(irq_unexpectedisr.o)
 .debug_loc     0x0000482b       0x3f NuttX/nuttx/sched/libsched.a(sched_garbage.o)
 .debug_loc     0x0000486a       0xc3 NuttX/nuttx/sched/libsched.a(sched_foreach.o)
 .debug_loc     0x0000492d       0xf7 NuttX/nuttx/sched/libsched.a(sem_wait.o)
 .debug_loc     0x00004a24      0x101 NuttX/nuttx/sched/libsched.a(sem_trywait.o)
 .debug_loc     0x00004b25       0xf6 NuttX/nuttx/sched/libsched.a(sem_post.o)
 .debug_loc     0x00004c1b       0x94 NuttX/nuttx/sched/libsched.a(sem_reset.o)
 .debug_loc     0x00004caf      0x33e NuttX/nuttx/sched/libsched.a(task_create.o)
 .debug_loc     0x00004fed      0x539 NuttX/nuttx/sched/libsched.a(task_setup.o)
 .debug_loc     0x00005526       0x4d NuttX/nuttx/sched/libsched.a(task_activate.o)
 .debug_loc     0x00005573       0x50 NuttX/nuttx/sched/libsched.a(task_start.o)
 .debug_loc     0x000055c3       0x13 NuttX/nuttx/sched/libsched.a(task_getpid.o)
 .debug_loc     0x000055d6       0x31 NuttX/nuttx/sched/libsched.a(exit.o)
 .debug_loc     0x00005607       0x9e NuttX/nuttx/sched/libsched.a(group_create.o)
 .debug_loc     0x000056a5       0x78 NuttX/nuttx/sched/libsched.a(group_setupidlefiles.o)
 .debug_loc     0x0000571d       0x44 NuttX/nuttx/sched/libsched.a(group_setuptaskfiles.o)
 .debug_loc     0x00005761       0x1f NuttX/nuttx/sched/libsched.a(irq_initialize.o)
 .debug_loc     0x00005780       0x8b NuttX/nuttx/sched/libsched.a(sched_releasetcb.o)
 .debug_loc     0x0000580b       0x13 NuttX/nuttx/sched/libsched.a(sched_lock.o)
 .debug_loc     0x0000581e       0x52 NuttX/nuttx/sched/libsched.a(sched_unlock.o)
 .debug_loc     0x00005870       0x60 NuttX/nuttx/sched/libsched.a(task_exithook.o)
 .debug_loc     0x000058d0       0x37 NuttX/nuttx/sched/libsched.a(task_recover.o)
 .debug_loc     0x00005907       0x5d NuttX/nuttx/sched/libsched.a(wd_recover.o)
 .debug_loc     0x00005964       0x31 NuttX/nuttx/sched/libsched.a(group_leave.o)
 .debug_loc     0x00005995       0x58 NuttX/nuttx/sched/libsched.a(sched_free.o)
 .debug_loc     0x000059ed       0x52 NuttX/nuttx/sched/libsched.a(sem_recover.o)
 .debug_loc     0x00005a3f      0x10b NuttX/nuttx/sched/libsched.a(wd_cancel.o)
 .debug_loc     0x00005b4a       0x7e NuttX/nuttx/sched/libsched.a(wd_delete.o)
 .debug_loc     0x00005bc8       0x3e NuttX/nuttx/sched/libsched.a(wd_initialize.o)
 .debug_loc     0x00005c06      0x2d6 src/modules/px4iofirmware/libmodules__px4iofirmware.a(px4io.c.obj)
 .debug_loc     0x00005edc      0xeaa src/modules/px4iofirmware/libmodules__px4iofirmware.a(registers.c.obj)
 .debug_loc     0x00006d86       0xbb src/modules/px4iofirmware/libmodules__px4iofirmware.a(safety.c.obj)
 .debug_loc     0x00006e41      0x270 src/modules/px4iofirmware/libmodules__px4iofirmware.a(serial.c.obj)
 .debug_loc     0x000070b1      0x9c5 src/modules/px4iofirmware/libmodules__px4iofirmware.a(perf_counter.c.obj)
 .debug_loc     0x00007a76      0x339 src/modules/px4iofirmware/libmodules__px4iofirmware.a(pwm_limit.c.obj)
 .debug_loc     0x00007daf       0x4e src/modules/px4iofirmware/libmodules__px4iofirmware.a(adc.c.obj)
 .debug_loc     0x00007dfd      0x6b8 src/modules/px4iofirmware/libmodules__px4iofirmware.a(controls.c.obj)
 .debug_loc     0x000084b5      0x56d src/modules/px4iofirmware/libmodules__px4iofirmware.a(mixer.cpp.obj)
 .debug_loc     0x00008a22      0x561 src/modules/systemlib/mixer/libmodules__systemlib__mixer.a(mixer_group.cpp.obj)
 .debug_loc     0x00008f83      0x59c src/modules/systemlib/mixer/libmodules__systemlib__mixer.a(mixer_helicopter.cpp.obj)
 .debug_loc     0x0000951f      0x8fa src/modules/systemlib/mixer/libmodules__systemlib__mixer.a(mixer_multirotor.cpp.obj)
 .debug_loc     0x00009e19      0x7f8 src/modules/systemlib/mixer/libmodules__systemlib__mixer.a(mixer_simple.cpp.obj)
 .debug_loc     0x0000a611      0x358 src/modules/systemlib/mixer/libmodules__systemlib__mixer.a(mixer.cpp.obj)
 .debug_loc     0x0000a969       0x3e NuttX/apps/libapps.a(gnu_cxxinitialize.o)
 .debug_loc     0x0000a9a7      0x121 NuttX/nuttx/arch/arm/src/libarch.a(up_blocktask.o)
 .debug_loc     0x0000aac8       0x5b NuttX/nuttx/arch/arm/src/libarch.a(up_copyfullstate.o)
 .debug_loc     0x0000ab23      0x116 NuttX/nuttx/arch/arm/src/libarch.a(up_createstack.o)
 .debug_loc     0x0000ac39       0x1e NuttX/nuttx/arch/arm/src/libarch.a(up_udelay.o)
 .debug_loc     0x0000ac57       0x55 NuttX/nuttx/arch/arm/src/libarch.a(up_exit.o)
 .debug_loc     0x0000acac       0x4b NuttX/nuttx/arch/arm/src/libarch.a(up_initialstate.o)
 .debug_loc     0x0000acf7       0x6e NuttX/nuttx/arch/arm/src/libarch.a(up_releasepending.o)
 .debug_loc     0x0000ad65       0x3f NuttX/nuttx/arch/arm/src/libarch.a(up_releasestack.o)
 .debug_loc     0x0000ada4       0x5f NuttX/nuttx/arch/arm/src/libarch.a(up_stackframe.o)
 .debug_loc     0x0000ae03       0x1e NuttX/nuttx/arch/arm/src/libarch.a(up_systemreset.o)
 .debug_loc     0x0000ae21       0xc9 NuttX/nuttx/arch/arm/src/libarch.a(up_unblocktask.o)
 .debug_loc     0x0000aeea       0x86 NuttX/nuttx/arch/arm/src/libarch.a(stm32_timerisr.o)
 .debug_loc     0x0000af70       0xea NuttX/nuttx/libc/libc.a(lib_crc32.o)
 .debug_loc     0x0000b05a       0x76 NuttX/nuttx/libc/libc.a(sq_rem.o)
 .debug_loc     0x0000b0d0       0x21 NuttX/nuttx/libc/libc.a(sq_remfirst.o)
 .debug_loc     0x0000b0f1       0x42 NuttX/nuttx/libc/libc.a(sq_remafter.o)
 .debug_loc     0x0000b133       0x13 NuttX/nuttx/libc/libc.a(dq_rem.o)
 .debug_loc     0x0000b146       0x79 NuttX/nuttx/libc/libc.a(sem_setprotocol.o)
 .debug_loc     0x0000b1bf      0x10b NuttX/nuttx/libc/libc.a(lib_vsnprintf.o)
 .debug_loc     0x0000b2ca      0xd3f NuttX/nuttx/libc/libc.a(lib_libvsprintf.o)
 .debug_loc     0x0000c009       0x41 NuttX/nuttx/libc/libc.a(lib_memoutstream.o)
 .debug_loc     0x0000c04a      0x4e0 NuttX/nuttx/libc/libc.a(lib_sscanf.o)
 .debug_loc     0x0000c52a       0x21 NuttX/nuttx/libc/libc.a(lib_libnoflush.o)
 .debug_loc     0x0000c54b      0x110 NuttX/nuttx/libc/libc.a(lib_strtol.o)
 .debug_loc     0x0000c65b      0x116 NuttX/nuttx/libc/libc.a(lib_strtoul.o)
 .debug_loc     0x0000c771       0xf0 NuttX/nuttx/libc/libc.a(lib_checkbase.o)
 .debug_loc     0x0000c861      0x159 NuttX/nuttx/libc/libc.a(lib_isbasedigit.o)
 .debug_loc     0x0000c9ba       0x49 NuttX/nuttx/libc/libc.a(lib_memset.o)
 .debug_loc     0x0000ca03       0xb8 NuttX/nuttx/libc/libc.a(lib_memchr.o)
 .debug_loc     0x0000cabb       0xd3 NuttX/nuttx/libc/libc.a(lib_memmove.o)
 .debug_loc     0x0000cb8e       0x47 NuttX/nuttx/libc/libc.a(lib_skipspace.o)
 .debug_loc     0x0000cbd5       0x21 NuttX/nuttx/libc/libc.a(lib_strchr.o)
 .debug_loc     0x0000cbf6       0x63 NuttX/nuttx/libc/libc.a(lib_strcmp.o)
 .debug_loc     0x0000cc59       0x5b NuttX/nuttx/libc/libc.a(lib_strcspn.o)
 .debug_loc     0x0000ccb4       0x57 NuttX/nuttx/libc/libc.a(lib_strlen.o)
 .debug_loc     0x0000cd0b       0x6a NuttX/nuttx/libc/libc.a(lib_strnlen.o)
 .debug_loc     0x0000cd75       0x9a NuttX/nuttx/libc/libc.a(lib_strncpy.o)
 .debug_loc     0x0000ce0f       0x79 NuttX/nuttx/libxx/libcxx.a(libxx_eabi_atexit.o)
 .debug_loc     0x0000ce88       0x21 NuttX/nuttx/libxx/libcxx.a(libxx_cxa_atexit.o)
 .debug_loc     0x0000cea9       0x21 NuttX/nuttx/libxx/libcxx.a(libxx_delete.o)
 .debug_loc     0x0000ceca       0x21 NuttX/nuttx/libxx/libcxx.a(libxx_deletea.o)
 .debug_loc     0x0000ceeb       0x4e NuttX/nuttx/libxx/libcxx.a(libxx_new.o)
 .debug_loc     0x0000cf39       0x4e NuttX/nuttx/libxx/libcxx.a(libxx_newa.o)
 .debug_loc     0x0000cf87       0x3a NuttX/nuttx/drivers/libdrivers.a(syslog_initialize.o)
 .debug_loc     0x0000cfc1       0x1e NuttX/nuttx/drivers/libdrivers.a(syslog_consolechannel.o)
 .debug_loc     0x0000cfdf      0x3cf NuttX/nuttx/drivers/libdrivers.a(syslog_device.o)
 .debug_loc     0x0000d3ae      0x3d5 NuttX/nuttx/fs/libfs.a(fs_files.o)
 .debug_loc     0x0000d783       0x37 NuttX/nuttx/fs/libfs.a(fs_inodeaddref.o)
 .debug_loc     0x0000d7ba       0x5b NuttX/nuttx/fs/libfs.a(fs_inoderelease.o)
 .debug_loc     0x0000d815       0xe8 NuttX/nuttx/fs/libfs.a(fs_filedetach.o)
 .debug_loc     0x0000d8fd       0x76 NuttX/nuttx/fs/libfs.a(fs_close.o)
 .debug_loc     0x0000d973       0xe1 NuttX/nuttx/fs/libfs.a(fs_dupfd2.o)
 .debug_loc     0x0000da54       0x60 NuttX/nuttx/fs/libfs.a(fs_getfilep.o)
 .debug_loc     0x0000dab4      0x16f NuttX/nuttx/fs/libfs.a(fs_open.o)
 .debug_loc     0x0000dc23      0x226 NuttX/nuttx/fs/libfs.a(fs_write.o)
 .debug_loc     0x0000de49       0x4f NuttX/nuttx/fs/libfs.a(fs_inodefind.o)
 .debug_loc     0x0000de98       0x42 NuttX/nuttx/fs/libfs.a(fs_inodefree.o)
 .debug_loc     0x0000deda       0x58 NuttX/nuttx/mm/libmm.a(umm_initialize.o)
 .debug_loc     0x0000df32       0x2c NuttX/nuttx/mm/libmm.a(umm_free.o)
 .debug_loc     0x0000df5e       0x2c NuttX/nuttx/mm/libmm.a(umm_malloc.o)
 .debug_loc     0x0000df8a      0x230 NuttX/nuttx/mm/libmm.a(mm_initialize.o)
 .debug_loc     0x0000e1ba      0x103 NuttX/nuttx/mm/libmm.a(mm_free.o)
 .debug_loc     0x0000e2bd       0xee NuttX/nuttx/mm/libmm.a(mm_mallinfo.o)
 .debug_loc     0x0000e3ab       0x1f NuttX/nuttx/sched/libsched.a(sched_getfiles.o)
 .debug_loc     0x0000e3ca       0x80 NuttX/nuttx/sched/libsched.a(sched_addreadytorun.o)
 .debug_loc     0x0000e44a       0x76 NuttX/nuttx/sched/libsched.a(sched_removereadytorun.o)
 .debug_loc     0x0000e4c0      0x15a NuttX/nuttx/sched/libsched.a(sched_addprioritized.o)
 .debug_loc     0x0000e61a       0xba NuttX/nuttx/sched/libsched.a(sched_mergepending.o)
 .debug_loc     0x0000e6d4       0x81 NuttX/nuttx/sched/libsched.a(sched_addblocked.o)
 .debug_loc     0x0000e755       0x40 NuttX/nuttx/sched/libsched.a(sched_removeblocked.o)
 .debug_loc     0x0000e795       0x3a NuttX/nuttx/sched/libsched.a(sem_destroy.o)
 .debug_loc     0x0000e7cf       0x4f NuttX/nuttx/sched/libsched.a(task_exit.o)
 .debug_loc     0x0000e81e       0x95 NuttX/nuttx/sched/libsched.a(task_terminate.o)
 .debug_loc     0x0000e8b3      0x22e NuttX/nuttx/sched/libsched.a(wd_start.o)
 .debug_loc     0x0000eae1       0x6a NuttX/nuttx/sched/libsched.a(sched_gettcb.o)
 .debug_loc     0x0000eb4b      0x902 src/drivers/stm32/libdrivers__stm32.a(drv_hrt.c.obj)
 .debug_loc     0x0000f44d      0x1d1 src/drivers/stm32/libdrivers__stm32.a(drv_pwm_servo.c.obj)
 .debug_loc     0x0000f61e      0xcd3 src/drivers/stm32/libdrivers__stm32.a(drv_io_timer.c.obj)
 .debug_loc     0x000102f1      0x2de src/lib/rc/liblib__rc.a(st24.cpp.obj)
 .debug_loc     0x000105cf      0x4f8 src/lib/rc/liblib__rc.a(sumd.cpp.obj)
 .debug_loc     0x00010ac7      0x6c0 src/lib/rc/liblib__rc.a(sbus.cpp.obj)
 .debug_loc     0x00011187      0x878 src/lib/rc/liblib__rc.a(dsm.cpp.obj)
 .debug_loc     0x000119ff       0xa8 NuttX/nuttx/libc/libc.a(sq_addafter.o)
 .debug_loc     0x00011aa7       0x48 NuttX/nuttx/libc/libc.a(lib_strdup.o)
 .debug_loc     0x00011aef       0x4d NuttX/nuttx/libc/libc.a(lib_tcgetattr.o)
 .debug_loc     0x00011b3c       0x92 NuttX/nuttx/libc/libc.a(lib_tcsetattr.o)
 .debug_loc     0x00011bce      0x226 NuttX/nuttx/fs/libfs.a(fs_ioctl.o)
 .debug_loc     0x00011df4      0x212 NuttX/nuttx/fs/libfs.a(fs_read.o)

.debug_ranges   0x00000000     0x22a8
 .debug_ranges  0x00000000       0x18 NuttX/nuttx/arch/arm/src/libarch.a(stm32_start.o)
 .debug_ranges  0x00000018       0x28 NuttX/nuttx/arch/arm/src/libarch.a(stm32_rcc.o)
 .debug_ranges  0x00000040       0x30 NuttX/nuttx/arch/arm/src/libarch.a(stm32_gpio.o)
 .debug_ranges  0x00000070       0x18 NuttX/nuttx/arch/arm/src/libarch.a(stm32_lowputc.o)
 .debug_ranges  0x00000088      0x210 NuttX/nuttx/arch/arm/src/libarch.a(stm32_serial.o)
 .debug_ranges  0x00000298       0x28 NuttX/nuttx/arch/arm/src/libarch.a(up_modifyreg32.o)
 .debug_ranges  0x000002c0       0x30 NuttX/nuttx/arch/arm/src/libarch.a(stm32_irq.o)
 .debug_ranges  0x000002f0       0x98 NuttX/nuttx/arch/arm/src/libarch.a(stm32_dma.o)
 .debug_ranges  0x00000388       0x30 NuttX/nuttx/arch/arm/src/libarch.a(up_assert.o)
 .debug_ranges  0x000003b8       0x10 NuttX/nuttx/arch/arm/src/libarch.a(up_doirq.o)
 .debug_ranges  0x000003c8       0x10 NuttX/nuttx/arch/arm/src/libarch.a(up_hardfault.o)
 .debug_ranges  0x000003d8       0x10 NuttX/nuttx/arch/arm/src/libarch.a(up_svcall.o)
 .debug_ranges  0x000003e8       0x40 NuttX/nuttx/arch/arm/src/libarch.a(up_checkstack.o)
 .debug_ranges  0x00000428       0x10 NuttX/nuttx/libc/libc.a(sem_init.o)
 .debug_ranges  0x00000438       0x10 NuttX/nuttx/libc/libc.a(lib_abort.o)
 .debug_ranges  0x00000448       0x10 NuttX/nuttx/libc/libc.a(lib_strcpy.o)
 .debug_ranges  0x00000458       0x18 NuttX/nuttx/libc/libc.a(lib_syslog.o)
 .debug_ranges  0x00000470       0x28 NuttX/nuttx/libc/libc.a(lib_setlogmask.o)
 .debug_ranges  0x00000498       0x10 NuttX/nuttx/libc/libc.a(lib_cfgetspeed.o)
 .debug_ranges  0x000004a8       0x10 NuttX/nuttx/libc/libc.a(lib_cfsetspeed.o)
 .debug_ranges  0x000004b8       0xf0 NuttX/nuttx/drivers/libdrivers.a(serial.o)
 .debug_ranges  0x000005a8       0x30 NuttX/nuttx/drivers/libdrivers.a(serial_io.o)
 .debug_ranges  0x000005d8       0x10 NuttX/nuttx/drivers/libdrivers.a(vsyslog.o)
 .debug_ranges  0x000005e8       0x18 NuttX/nuttx/drivers/libdrivers.a(syslog_stream.o)
 .debug_ranges  0x00000600       0x18 NuttX/nuttx/drivers/libdrivers.a(syslog_emergstream.o)
 .debug_ranges  0x00000618       0x10 NuttX/nuttx/drivers/libdrivers.a(syslog_putc.o)
 .debug_ranges  0x00000628       0x10 NuttX/nuttx/drivers/libdrivers.a(syslog_force.o)
 .debug_ranges  0x00000638       0x18 NuttX/nuttx/drivers/libdrivers.a(syslog_channel.o)
 .debug_ranges  0x00000650       0x10 NuttX/nuttx/fs/libfs.a(fs_registerdriver.o)
 .debug_ranges  0x00000660       0x20 NuttX/nuttx/fs/libfs.a(fs_inode.o)
 .debug_ranges  0x00000680       0x80 NuttX/nuttx/fs/libfs.a(fs_inodereserve.o)
 .debug_ranges  0x00000700       0x60 NuttX/nuttx/fs/libfs.a(fs_inodesearch.o)
 .debug_ranges  0x00000760       0x10 NuttX/nuttx/mm/libmm.a(umm_zalloc.o)
 .debug_ranges  0x00000770       0x10 NuttX/nuttx/mm/libmm.a(mm_zalloc.o)
 .debug_ranges  0x00000780       0x10 NuttX/nuttx/mm/libmm.a(mm_malloc.o)
 .debug_ranges  0x00000790       0x28 NuttX/nuttx/mm/libmm.a(mm_sem.o)
 .debug_ranges  0x000007b8       0x10 NuttX/nuttx/mm/libmm.a(mm_addfreechunk.o)
 .debug_ranges  0x000007c8       0x10 NuttX/nuttx/mm/libmm.a(mm_size2ndx.o)
 .debug_ranges  0x000007d8       0x10 NuttX/nuttx/sched/libsched.a(errno_getptr.o)
 .debug_ranges  0x000007e8       0x50 NuttX/nuttx/sched/libsched.a(os_start.o)
 .debug_ranges  0x00000838       0x10 NuttX/nuttx/sched/libsched.a(os_bringup.o)
 .debug_ranges  0x00000848       0x10 NuttX/nuttx/sched/libsched.a(irq_attach.o)
 .debug_ranges  0x00000858       0x10 NuttX/nuttx/sched/libsched.a(irq_dispatch.o)
 .debug_ranges  0x00000868       0x10 NuttX/nuttx/sched/libsched.a(irq_unexpectedisr.o)
 .debug_ranges  0x00000878       0x48 NuttX/nuttx/sched/libsched.a(sched_garbage.o)
 .debug_ranges  0x000008c0       0x10 NuttX/nuttx/sched/libsched.a(sched_foreach.o)
 .debug_ranges  0x000008d0       0x10 NuttX/nuttx/sched/libsched.a(sched_idletask.o)
 .debug_ranges  0x000008e0       0x10 NuttX/nuttx/sched/libsched.a(sem_wait.o)
 .debug_ranges  0x000008f0       0x10 NuttX/nuttx/sched/libsched.a(sem_trywait.o)
 .debug_ranges  0x00000900       0x10 NuttX/nuttx/sched/libsched.a(sem_post.o)
 .debug_ranges  0x00000910       0x10 NuttX/nuttx/sched/libsched.a(sem_reset.o)
 .debug_ranges  0x00000920       0x20 NuttX/nuttx/sched/libsched.a(task_create.o)
 .debug_ranges  0x00000940       0x48 NuttX/nuttx/sched/libsched.a(task_setup.o)
 .debug_ranges  0x00000988       0x10 NuttX/nuttx/sched/libsched.a(task_activate.o)
 .debug_ranges  0x00000998       0x10 NuttX/nuttx/sched/libsched.a(task_start.o)
 .debug_ranges  0x000009a8       0x10 NuttX/nuttx/sched/libsched.a(task_getpid.o)
 .debug_ranges  0x000009b8       0x10 NuttX/nuttx/sched/libsched.a(exit.o)
 .debug_ranges  0x000009c8       0x18 NuttX/nuttx/sched/libsched.a(group_create.o)
 .debug_ranges  0x000009e0       0x10 NuttX/nuttx/sched/libsched.a(group_setupidlefiles.o)
 .debug_ranges  0x000009f0       0x10 NuttX/nuttx/sched/libsched.a(group_setuptaskfiles.o)
 .debug_ranges  0x00000a00       0x10 NuttX/nuttx/sched/libsched.a(irq_initialize.o)
 .debug_ranges  0x00000a10       0x10 NuttX/nuttx/sched/libsched.a(sched_releasetcb.o)
 .debug_ranges  0x00000a20       0x10 NuttX/nuttx/sched/libsched.a(sched_lock.o)
 .debug_ranges  0x00000a30       0x10 NuttX/nuttx/sched/libsched.a(sched_unlock.o)
 .debug_ranges  0x00000a40       0x10 NuttX/nuttx/sched/libsched.a(task_exithook.o)
 .debug_ranges  0x00000a50       0x10 NuttX/nuttx/sched/libsched.a(task_recover.o)
 .debug_ranges  0x00000a60       0x10 NuttX/nuttx/sched/libsched.a(wd_recover.o)
 .debug_ranges  0x00000a70       0x10 NuttX/nuttx/sched/libsched.a(group_leave.o)
 .debug_ranges  0x00000a80       0x10 NuttX/nuttx/sched/libsched.a(sched_free.o)
 .debug_ranges  0x00000a90       0x10 NuttX/nuttx/sched/libsched.a(sem_recover.o)
 .debug_ranges  0x00000aa0       0x10 NuttX/nuttx/sched/libsched.a(wd_cancel.o)
 .debug_ranges  0x00000ab0       0x28 NuttX/nuttx/sched/libsched.a(wd_delete.o)
 .debug_ranges  0x00000ad8       0x10 NuttX/nuttx/sched/libsched.a(wd_initialize.o)
 .debug_ranges  0x00000ae8       0x10 src/drivers/boards/px4io-v2/libdrivers__boards__px4io-v2.a(px4io_init.c.obj)
 .debug_ranges  0x00000af8       0xa0 src/modules/px4iofirmware/libmodules__px4iofirmware.a(px4io.c.obj)
 .debug_ranges  0x00000b98      0x100 src/modules/px4iofirmware/libmodules__px4iofirmware.a(registers.c.obj)
 .debug_ranges  0x00000c98       0x28 src/modules/px4iofirmware/libmodules__px4iofirmware.a(safety.c.obj)
 .debug_ranges  0x00000cc0       0x88 src/modules/px4iofirmware/libmodules__px4iofirmware.a(serial.c.obj)
 .debug_ranges  0x00000d48       0x98 src/modules/px4iofirmware/libmodules__px4iofirmware.a(perf_counter.c.obj)
 .debug_ranges  0x00000de0       0x60 src/modules/px4iofirmware/libmodules__px4iofirmware.a(pwm_limit.c.obj)
 .debug_ranges  0x00000e40       0x18 src/modules/px4iofirmware/libmodules__px4iofirmware.a(adc.c.obj)
 .debug_ranges  0x00000e58      0x130 src/modules/px4iofirmware/libmodules__px4iofirmware.a(controls.c.obj)
 .debug_ranges  0x00000f88       0xe8 src/modules/px4iofirmware/libmodules__px4iofirmware.a(mixer.cpp.obj)
 .debug_ranges  0x00001070       0x88 src/modules/systemlib/mixer/libmodules__systemlib__mixer.a(mixer_group.cpp.obj)
 .debug_ranges  0x000010f8       0xb8 src/modules/systemlib/mixer/libmodules__systemlib__mixer.a(mixer_helicopter.cpp.obj)
 .debug_ranges  0x000011b0      0x158 src/modules/systemlib/mixer/libmodules__systemlib__mixer.a(mixer_multirotor.cpp.obj)
 .debug_ranges  0x00001308       0x90 src/modules/systemlib/mixer/libmodules__systemlib__mixer.a(mixer_simple.cpp.obj)
 .debug_ranges  0x00001398       0xb0 src/modules/systemlib/mixer/libmodules__systemlib__mixer.a(mixer.cpp.obj)
 .debug_ranges  0x00001448       0x28 NuttX/apps/libapps.a(gnu_cxxinitialize.o)
 .debug_ranges  0x00001470       0x10 NuttX/nuttx/arch/arm/src/libarch.a(stm32_allocateheap.o)
 .debug_ranges  0x00001480       0x10 NuttX/nuttx/arch/arm/src/libarch.a(stm32_idle.o)
 .debug_ranges  0x00001490       0x28 NuttX/nuttx/arch/arm/src/libarch.a(up_blocktask.o)
 .debug_ranges  0x000014b8       0x10 NuttX/nuttx/arch/arm/src/libarch.a(up_copyfullstate.o)
 .debug_ranges  0x000014c8       0x18 NuttX/nuttx/arch/arm/src/libarch.a(up_createstack.o)
 .debug_ranges  0x000014e0       0x10 NuttX/nuttx/arch/arm/src/libarch.a(up_mdelay.o)
 .debug_ranges  0x000014f0       0x10 NuttX/nuttx/arch/arm/src/libarch.a(up_udelay.o)
 .debug_ranges  0x00001500       0x10 NuttX/nuttx/arch/arm/src/libarch.a(up_exit.o)
 .debug_ranges  0x00001510       0x10 NuttX/nuttx/arch/arm/src/libarch.a(up_initialize.o)
 .debug_ranges  0x00001520       0x10 NuttX/nuttx/arch/arm/src/libarch.a(up_initialstate.o)
 .debug_ranges  0x00001530       0x10 NuttX/nuttx/arch/arm/src/libarch.a(up_interruptcontext.o)
 .debug_ranges  0x00001540       0x28 NuttX/nuttx/arch/arm/src/libarch.a(up_releasepending.o)
 .debug_ranges  0x00001568       0x10 NuttX/nuttx/arch/arm/src/libarch.a(up_releasestack.o)
 .debug_ranges  0x00001578       0x10 NuttX/nuttx/arch/arm/src/libarch.a(up_stackframe.o)
 .debug_ranges  0x00001588       0x10 NuttX/nuttx/arch/arm/src/libarch.a(up_systemreset.o)
 .debug_ranges  0x00001598       0x28 NuttX/nuttx/arch/arm/src/libarch.a(up_unblocktask.o)
 .debug_ranges  0x000015c0       0x18 NuttX/nuttx/arch/arm/src/libarch.a(stm32_timerisr.o)
 .debug_ranges  0x000015d8       0x18 NuttX/nuttx/libc/libc.a(lib_crc32.o)
 .debug_ranges  0x000015f0       0x10 NuttX/nuttx/libc/libc.a(sq_addlast.o)
 .debug_ranges  0x00001600       0x10 NuttX/nuttx/libc/libc.a(sq_addfirst.o)
 .debug_ranges  0x00001610       0x10 NuttX/nuttx/libc/libc.a(sq_rem.o)
 .debug_ranges  0x00001620       0x10 NuttX/nuttx/libc/libc.a(sq_remfirst.o)
 .debug_ranges  0x00001630       0x10 NuttX/nuttx/libc/libc.a(sq_remafter.o)
 .debug_ranges  0x00001640       0x10 NuttX/nuttx/libc/libc.a(dq_addfirst.o)
 .debug_ranges  0x00001650       0x10 NuttX/nuttx/libc/libc.a(dq_rem.o)
 .debug_ranges  0x00001660       0x10 NuttX/nuttx/libc/libc.a(sem_setprotocol.o)
 .debug_ranges  0x00001670       0x10 NuttX/nuttx/libc/libc.a(lib_printf.o)
 .debug_ranges  0x00001680       0x10 NuttX/nuttx/libc/libc.a(lib_vsnprintf.o)
 .debug_ranges  0x00001690       0x70 NuttX/nuttx/libc/libc.a(lib_libvsprintf.o)
 .debug_ranges  0x00001700       0x18 NuttX/nuttx/libc/libc.a(lib_memoutstream.o)
 .debug_ranges  0x00001718       0x18 NuttX/nuttx/libc/libc.a(lib_nulloutstream.o)
 .debug_ranges  0x00001730       0x68 NuttX/nuttx/libc/libc.a(lib_sscanf.o)
 .debug_ranges  0x00001798       0x10 NuttX/nuttx/libc/libc.a(lib_libnoflush.o)
 .debug_ranges  0x000017a8       0x10 NuttX/nuttx/libc/libc.a(lib_strtol.o)
 .debug_ranges  0x000017b8       0x10 NuttX/nuttx/libc/libc.a(lib_strtoul.o)
 .debug_ranges  0x000017c8       0x10 NuttX/nuttx/libc/libc.a(lib_checkbase.o)
 .debug_ranges  0x000017d8       0x10 NuttX/nuttx/libc/libc.a(lib_isbasedigit.o)
 .debug_ranges  0x000017e8       0x10 NuttX/nuttx/libc/libc.a(lib_memset.o)
 .debug_ranges  0x000017f8       0x10 NuttX/nuttx/libc/libc.a(lib_memchr.o)
 .debug_ranges  0x00001808       0x10 NuttX/nuttx/libc/libc.a(lib_memmove.o)
 .debug_ranges  0x00001818       0x10 NuttX/nuttx/libc/libc.a(lib_skipspace.o)
 .debug_ranges  0x00001828       0x10 NuttX/nuttx/libc/libc.a(lib_strchr.o)
 .debug_ranges  0x00001838       0x10 NuttX/nuttx/libc/libc.a(lib_strcmp.o)
 .debug_ranges  0x00001848       0x10 NuttX/nuttx/libc/libc.a(lib_strcspn.o)
 .debug_ranges  0x00001858       0x10 NuttX/nuttx/libc/libc.a(lib_strlen.o)
 .debug_ranges  0x00001868       0x10 NuttX/nuttx/libc/libc.a(lib_strnlen.o)
 .debug_ranges  0x00001878       0x10 NuttX/nuttx/libc/libc.a(lib_strncpy.o)
 .debug_ranges  0x00001888       0x10 NuttX/nuttx/libxx/libcxx.a(libxx_cxapurevirtual.o)
 .debug_ranges  0x00001898       0x10 NuttX/nuttx/libxx/libcxx.a(libxx_eabi_atexit.o)
 .debug_ranges  0x000018a8       0x10 NuttX/nuttx/libxx/libcxx.a(libxx_cxa_atexit.o)
 .debug_ranges  0x000018b8       0x10 NuttX/nuttx/libxx/libcxx.a(libxx_delete.o)
 .debug_ranges  0x000018c8       0x10 NuttX/nuttx/libxx/libcxx.a(libxx_deletea.o)
 .debug_ranges  0x000018d8       0x10 NuttX/nuttx/libxx/libcxx.a(libxx_new.o)
 .debug_ranges  0x000018e8       0x10 NuttX/nuttx/libxx/libcxx.a(libxx_newa.o)
 .debug_ranges  0x000018f8       0x10 NuttX/nuttx/drivers/libdrivers.a(syslog_initialize.o)
 .debug_ranges  0x00001908       0x10 NuttX/nuttx/drivers/libdrivers.a(syslog_consolechannel.o)
 .debug_ranges  0x00001918       0x68 NuttX/nuttx/drivers/libdrivers.a(syslog_device.o)
 .debug_ranges  0x00001980       0x10 NuttX/nuttx/fs/libfs.a(fs_initialize.o)
 .debug_ranges  0x00001990       0x50 NuttX/nuttx/fs/libfs.a(fs_files.o)
 .debug_ranges  0x000019e0       0x10 NuttX/nuttx/fs/libfs.a(fs_inodeaddref.o)
 .debug_ranges  0x000019f0       0x10 NuttX/nuttx/fs/libfs.a(fs_inoderelease.o)
 .debug_ranges  0x00001a00       0x18 NuttX/nuttx/fs/libfs.a(fs_filedetach.o)
 .debug_ranges  0x00001a18       0x10 NuttX/nuttx/fs/libfs.a(fs_close.o)
 .debug_ranges  0x00001a28       0x10 NuttX/nuttx/fs/libfs.a(fs_dupfd2.o)
 .debug_ranges  0x00001a38       0x10 NuttX/nuttx/fs/libfs.a(fs_getfilep.o)
 .debug_ranges  0x00001a48       0x18 NuttX/nuttx/fs/libfs.a(fs_open.o)
 .debug_ranges  0x00001a60       0x18 NuttX/nuttx/fs/libfs.a(fs_write.o)
 .debug_ranges  0x00001a78       0x10 NuttX/nuttx/fs/libfs.a(fs_inodefind.o)
 .debug_ranges  0x00001a88       0x10 NuttX/nuttx/fs/libfs.a(fs_inodefree.o)
 .debug_ranges  0x00001a98       0x10 NuttX/nuttx/mm/libmm.a(umm_initialize.o)
 .debug_ranges  0x00001aa8       0x18 NuttX/nuttx/mm/libmm.a(umm_sem.o)
 .debug_ranges  0x00001ac0       0x10 NuttX/nuttx/mm/libmm.a(umm_free.o)
 .debug_ranges  0x00001ad0       0x10 NuttX/nuttx/mm/libmm.a(umm_mallinfo.o)
 .debug_ranges  0x00001ae0       0x10 NuttX/nuttx/mm/libmm.a(umm_malloc.o)
 .debug_ranges  0x00001af0       0x18 NuttX/nuttx/mm/libmm.a(mm_initialize.o)
 .debug_ranges  0x00001b08       0x10 NuttX/nuttx/mm/libmm.a(mm_free.o)
 .debug_ranges  0x00001b18       0x10 NuttX/nuttx/mm/libmm.a(mm_mallinfo.o)
 .debug_ranges  0x00001b28       0x10 NuttX/nuttx/sched/libsched.a(sched_getfiles.o)
 .debug_ranges  0x00001b38       0x10 NuttX/nuttx/sched/libsched.a(sched_addreadytorun.o)
 .debug_ranges  0x00001b48       0x10 NuttX/nuttx/sched/libsched.a(sched_removereadytorun.o)
 .debug_ranges  0x00001b58       0x10 NuttX/nuttx/sched/libsched.a(sched_addprioritized.o)
 .debug_ranges  0x00001b68       0x10 NuttX/nuttx/sched/libsched.a(sched_mergepending.o)
 .debug_ranges  0x00001b78       0x10 NuttX/nuttx/sched/libsched.a(sched_addblocked.o)
 .debug_ranges  0x00001b88       0x10 NuttX/nuttx/sched/libsched.a(sched_removeblocked.o)
 .debug_ranges  0x00001b98       0x10 NuttX/nuttx/sched/libsched.a(sched_processtimer.o)
 .debug_ranges  0x00001ba8       0x10 NuttX/nuttx/sched/libsched.a(sem_destroy.o)
 .debug_ranges  0x00001bb8       0x10 NuttX/nuttx/sched/libsched.a(task_exit.o)
 .debug_ranges  0x00001bc8       0x10 NuttX/nuttx/sched/libsched.a(task_terminate.o)
 .debug_ranges  0x00001bd8       0x30 NuttX/nuttx/sched/libsched.a(wd_start.o)
 .debug_ranges  0x00001c08       0x10 NuttX/nuttx/sched/libsched.a(sched_gettcb.o)
 .debug_ranges  0x00001c18       0xc0 src/drivers/stm32/libdrivers__stm32.a(drv_hrt.c.obj)
 .debug_ranges  0x00001cd8       0x68 src/drivers/stm32/libdrivers__stm32.a(drv_pwm_servo.c.obj)
 .debug_ranges  0x00001d40      0x1c8 src/drivers/stm32/libdrivers__stm32.a(drv_io_timer.c.obj)
 .debug_ranges  0x00001f08       0x48 src/lib/rc/liblib__rc.a(st24.cpp.obj)
 .debug_ranges  0x00001f50       0x38 src/lib/rc/liblib__rc.a(sumd.cpp.obj)
 .debug_ranges  0x00001f88      0x138 src/lib/rc/liblib__rc.a(sbus.cpp.obj)
 .debug_ranges  0x000020c0      0x150 src/lib/rc/liblib__rc.a(dsm.cpp.obj)
 .debug_ranges  0x00002210       0x10 NuttX/nuttx/libc/libc.a(sq_addafter.o)
 .debug_ranges  0x00002220       0x10 NuttX/nuttx/libc/libc.a(dq_addlast.o)
 .debug_ranges  0x00002230       0x10 NuttX/nuttx/libc/libc.a(lib_strdup.o)
 .debug_ranges  0x00002240       0x10 NuttX/nuttx/libc/libc.a(lib_tcgetattr.o)
 .debug_ranges  0x00002250       0x10 NuttX/nuttx/libc/libc.a(lib_tcsetattr.o)
 .debug_ranges  0x00002260       0x18 NuttX/nuttx/fs/libfs.a(fs_ioctl.o)
 .debug_ranges  0x00002278       0x30 NuttX/nuttx/fs/libfs.a(fs_read.o)

.debug_str      0x00000000     0x6c38
 .debug_str     0x00000000      0x278 NuttX/nuttx/arch/arm/src/libarch.a(stm32_start.o)
                                0x2b8 (size before relaxing)
 .debug_str     0x00000278       0x8a NuttX/nuttx/arch/arm/src/libarch.a(stm32_rcc.o)
                                0x2b7 (size before relaxing)
 .debug_str     0x00000302       0xd8 NuttX/nuttx/arch/arm/src/libarch.a(stm32_gpio.o)
                                0x32c (size before relaxing)
 .debug_str     0x000003da       0x25 NuttX/nuttx/arch/arm/src/libarch.a(stm32_lowputc.o)
                                0x24f (size before relaxing)
 .debug_str     0x000003ff      0x5ca NuttX/nuttx/arch/arm/src/libarch.a(stm32_serial.o)
                                0x9b9 (size before relaxing)
 .debug_str     0x000009c9       0x18 NuttX/nuttx/arch/arm/src/libarch.a(up_modifyreg32.o)
                                0x2b0 (size before relaxing)
 .debug_str     0x000009e1       0x1e NuttX/nuttx/arch/arm/src/libarch.a(up_vectors.o)
                                0x1f6 (size before relaxing)
 .debug_str     0x000009ff       0x88 NuttX/nuttx/arch/arm/src/libarch.a(stm32_irq.o)
                                0x313 (size before relaxing)
 .debug_str     0x00000a87      0x19b NuttX/nuttx/arch/arm/src/libarch.a(stm32_dma.o)
                                0x4cc (size before relaxing)
 .debug_str     0x00000c22      0x267 NuttX/nuttx/arch/arm/src/libarch.a(up_assert.o)
                                0x669 (size before relaxing)
 .debug_str     0x00000e89       0x33 NuttX/nuttx/arch/arm/src/libarch.a(up_doirq.o)
                                0x265 (size before relaxing)
 .debug_str     0x00000ebc       0x24 NuttX/nuttx/arch/arm/src/libarch.a(up_hardfault.o)
                                0x2a3 (size before relaxing)
 .debug_str     0x00000ee0       0x25 NuttX/nuttx/arch/arm/src/libarch.a(up_svcall.o)
                                0x254 (size before relaxing)
 .debug_str     0x00000f05       0x63 NuttX/nuttx/arch/arm/src/libarch.a(up_checkstack.o)
                                0x593 (size before relaxing)
 .debug_str     0x00000f68       0x64 NuttX/nuttx/libc/libc.a(sem_init.o)
                                0x240 (size before relaxing)
 .debug_str     0x00000fcc       0x19 NuttX/nuttx/libc/libc.a(lib_abort.o)
                                0x216 (size before relaxing)
 .debug_str     0x00000fe5       0x14 NuttX/nuttx/libc/libc.a(lib_strcpy.o)
                                0x200 (size before relaxing)
 .debug_str     0x00000ff9       0x49 NuttX/nuttx/libc/libc.a(lib_syslog.o)
                                0x25a (size before relaxing)
 .debug_str     0x00001042       0x2b NuttX/nuttx/libc/libc.a(lib_setlogmask.o)
                                0x271 (size before relaxing)
 .debug_str     0x0000106d       0x19 NuttX/nuttx/libc/libc.a(lib_cfgetspeed.o)
                                0x287 (size before relaxing)
 .debug_str     0x00001086       0x19 NuttX/nuttx/libc/libc.a(lib_cfsetspeed.o)
                                0x28d (size before relaxing)
 .debug_str     0x0000109f      0x19d NuttX/nuttx/drivers/libdrivers.a(serial.o)
                                0x689 (size before relaxing)
 .debug_str     0x0000123c       0x1b NuttX/nuttx/drivers/libdrivers.a(serial_io.o)
                                0x4ac (size before relaxing)
 .debug_str     0x00001257       0x7f NuttX/nuttx/drivers/libdrivers.a(vsyslog.o)
                                0x2c4 (size before relaxing)
 .debug_str     0x000012d6       0x35 NuttX/nuttx/drivers/libdrivers.a(syslog_stream.o)
                                0x2aa (size before relaxing)
 .debug_str     0x0000130b       0x3a NuttX/nuttx/drivers/libdrivers.a(syslog_emergstream.o)
                                0x28d (size before relaxing)
 .debug_str     0x00001345       0x6e NuttX/nuttx/drivers/libdrivers.a(syslog_putc.o)
                                0x299 (size before relaxing)
 .debug_str     0x000013b3       0x16 NuttX/nuttx/drivers/libdrivers.a(syslog_force.o)
                                0x25f (size before relaxing)
 .debug_str     0x000013c9       0x3f NuttX/nuttx/drivers/libdrivers.a(syslog_channel.o)
                                0x2aa (size before relaxing)
 .debug_str     0x00001408       0x8f NuttX/nuttx/fs/libfs.a(fs_registerdriver.o)
                                0x379 (size before relaxing)
 .debug_str     0x00001497       0x52 NuttX/nuttx/fs/libfs.a(fs_inode.o)
                                0x2e1 (size before relaxing)
 .debug_str     0x000014e9       0xa4 NuttX/nuttx/fs/libfs.a(fs_inodereserve.o)
                                0x3f4 (size before relaxing)
 .debug_str     0x0000158d       0x46 NuttX/nuttx/fs/libfs.a(fs_inodesearch.o)
                                0x3b6 (size before relaxing)
 .debug_str     0x000015d3       0xfe NuttX/nuttx/mm/libmm.a(umm_zalloc.o)
                                0x31c (size before relaxing)
 .debug_str     0x000016d1       0x17 NuttX/nuttx/mm/libmm.a(umm_globals.o)
                                0x303 (size before relaxing)
 .debug_str     0x000016e8       0x25 NuttX/nuttx/mm/libmm.a(mm_zalloc.o)
                                0x31d (size before relaxing)
 .debug_str     0x0000170d       0x55 NuttX/nuttx/mm/libmm.a(mm_malloc.o)
                                0x362 (size before relaxing)
 .debug_str     0x00001762       0x35 NuttX/nuttx/mm/libmm.a(mm_sem.o)
                                0x39a (size before relaxing)
 .debug_str     0x00001797       0x1a NuttX/nuttx/mm/libmm.a(mm_addfreechunk.o)
                                0x32d (size before relaxing)
 .debug_str     0x000017b1       0x16 NuttX/nuttx/mm/libmm.a(mm_size2ndx.o)
                                0x22a (size before relaxing)
 .debug_str     0x000017c7       0x68 NuttX/nuttx/sched/libsched.a(errno_getptr.o)
                                0x5e0 (size before relaxing)
 .debug_str     0x0000182f      0x2e8 NuttX/nuttx/sched/libsched.a(os_start.o)
                                0x8ad (size before relaxing)
 .debug_str     0x00001b17       0x42 NuttX/nuttx/sched/libsched.a(os_bringup.o)
                                0x268 (size before relaxing)
 .debug_str     0x00001b59       0x2f NuttX/nuttx/sched/libsched.a(irq_attach.o)
                                0x2c2 (size before relaxing)
 .debug_str     0x00001b88       0x13 NuttX/nuttx/sched/libsched.a(irq_dispatch.o)
                                0x24e (size before relaxing)
 .debug_str     0x00001b9b       0x2b NuttX/nuttx/sched/libsched.a(irq_unexpectedisr.o)
                                0x28f (size before relaxing)
 .debug_str     0x00001bc6       0x4f NuttX/nuttx/sched/libsched.a(sched_garbage.o)
                                0x334 (size before relaxing)
 .debug_str     0x00001c15       0x26 NuttX/nuttx/sched/libsched.a(sched_foreach.o)
                                0x558 (size before relaxing)
 .debug_str     0x00001c3b       0x17 NuttX/nuttx/sched/libsched.a(sched_idletask.o)
                                0x532 (size before relaxing)
 .debug_str     0x00001c52       0x23 NuttX/nuttx/sched/libsched.a(sem_wait.o)
                                0x625 (size before relaxing)
 .debug_str     0x00001c75       0x18 NuttX/nuttx/sched/libsched.a(sem_trywait.o)
                                0x582 (size before relaxing)
 .debug_str     0x00001c8d       0x2a NuttX/nuttx/sched/libsched.a(sem_post.o)
                                0x59f (size before relaxing)
 .debug_str     0x00001cb7       0x2e NuttX/nuttx/sched/libsched.a(sem_reset.o)
                                0x2d4 (size before relaxing)
 .debug_str     0x00001ce5       0xae NuttX/nuttx/sched/libsched.a(task_create.o)
                                0x62c (size before relaxing)
 .debug_str     0x00001d93       0xb0 NuttX/nuttx/sched/libsched.a(task_setup.o)
                                0x6e9 (size before relaxing)
 .debug_str     0x00001e43       0x15 NuttX/nuttx/sched/libsched.a(task_activate.o)
                                0x53b (size before relaxing)
 .debug_str     0x00001e58       0x26 NuttX/nuttx/sched/libsched.a(task_start.o)
                                0x542 (size before relaxing)
 .debug_str     0x00001e7e       0x13 NuttX/nuttx/sched/libsched.a(task_getpid.o)
                                0x526 (size before relaxing)
 .debug_str     0x00001e91       0x1a NuttX/nuttx/sched/libsched.a(exit.o)
                                0x533 (size before relaxing)
 .debug_str     0x00001eab       0x15 NuttX/nuttx/sched/libsched.a(group_create.o)
                                0x516 (size before relaxing)
 .debug_str     0x00001ec0       0x2c NuttX/nuttx/sched/libsched.a(group_setupidlefiles.o)
                                0x51a (size before relaxing)
 .debug_str     0x00001eec       0x1d NuttX/nuttx/sched/libsched.a(group_setuptaskfiles.o)
                                0x515 (size before relaxing)
 .debug_str     0x00001f09       0x15 NuttX/nuttx/sched/libsched.a(irq_initialize.o)
                                0x243 (size before relaxing)
 .debug_str     0x00001f1e       0x53 NuttX/nuttx/sched/libsched.a(sched_releasetcb.o)
                                0x54b (size before relaxing)
 .debug_str     0x00001f71       0x13 NuttX/nuttx/sched/libsched.a(sched_lock.o)
                                0x53f (size before relaxing)
 .debug_str     0x00001f84       0x28 NuttX/nuttx/sched/libsched.a(sched_unlock.o)
                                0x5a9 (size before relaxing)
 .debug_str     0x00001fac       0x2e NuttX/nuttx/sched/libsched.a(task_exithook.o)
                                0x513 (size before relaxing)
 .debug_str     0x00001fda       0x2b NuttX/nuttx/sched/libsched.a(task_recover.o)
                                0x4fc (size before relaxing)
 .debug_str     0x00002005       0x26 NuttX/nuttx/sched/libsched.a(wd_recover.o)
                                0x539 (size before relaxing)
 .debug_str     0x0000202b       0x34 NuttX/nuttx/sched/libsched.a(group_leave.o)
                                0x510 (size before relaxing)
 .debug_str     0x0000205f       0x1e NuttX/nuttx/sched/libsched.a(sched_free.o)
                                0x323 (size before relaxing)
 .debug_str     0x0000207d       0x18 NuttX/nuttx/sched/libsched.a(sem_recover.o)
                                0x5bd (size before relaxing)
 .debug_str     0x00002095       0x3e NuttX/nuttx/sched/libsched.a(wd_cancel.o)
                                0x349 (size before relaxing)
 .debug_str     0x000020d3       0x28 NuttX/nuttx/sched/libsched.a(wd_delete.o)
                                0x359 (size before relaxing)
 .debug_str     0x000020fb       0x1e NuttX/nuttx/sched/libsched.a(wd_initialize.o)
                                0x2f5 (size before relaxing)
 .debug_str     0x00002119      0x199 src/drivers/boards/px4io-v2/libdrivers__boards__px4io-v2.a(px4io_init.c.obj)
                                0x275 (size before relaxing)
 .debug_str     0x000022b2      0x43c src/modules/px4iofirmware/libmodules__px4iofirmware.a(px4io.c.obj)
                                0x74a (size before relaxing)
 .debug_str     0x000026ee      0x28f src/modules/px4iofirmware/libmodules__px4iofirmware.a(registers.c.obj)
                                0x60a (size before relaxing)
 .debug_str     0x0000297d       0x92 src/modules/px4iofirmware/libmodules__px4iofirmware.a(safety.c.obj)
                                0x405 (size before relaxing)
 .debug_str     0x00002a0f       0xf7 src/modules/px4iofirmware/libmodules__px4iofirmware.a(serial.c.obj)
                                0x4b1 (size before relaxing)
 .debug_str     0x00002b06      0x2d4 src/modules/px4iofirmware/libmodules__px4iofirmware.a(perf_counter.c.obj)
                                0x65b (size before relaxing)
 .debug_str     0x00002dda       0xf4 src/modules/px4iofirmware/libmodules__px4iofirmware.a(pwm_limit.c.obj)
                                0x3fd (size before relaxing)
 .debug_str     0x00002ece       0x2f src/modules/px4iofirmware/libmodules__px4iofirmware.a(adc.c.obj)
                                0x321 (size before relaxing)
 .debug_str     0x00002efd      0x240 src/modules/px4iofirmware/libmodules__px4iofirmware.a(controls.c.obj)
                                0x68c (size before relaxing)
 .debug_str     0x0000313d      0x5fa src/modules/px4iofirmware/libmodules__px4iofirmware.a(mixer.cpp.obj)
                                0xacf (size before relaxing)
 .debug_str     0x00003737      0x493 src/modules/systemlib/mixer/libmodules__systemlib__mixer.a(mixer_group.cpp.obj)
                                0xa4d (size before relaxing)
 .debug_str     0x00003bca      0x2bc src/modules/systemlib/mixer/libmodules__systemlib__mixer.a(mixer_helicopter.cpp.obj)
                                0xa16 (size before relaxing)
 .debug_str     0x00003e86      0x6ed src/modules/systemlib/mixer/libmodules__systemlib__mixer.a(mixer_multirotor.cpp.obj)
                                0xf0b (size before relaxing)
 .debug_str     0x00004573      0x2dd src/modules/systemlib/mixer/libmodules__systemlib__mixer.a(mixer_simple.cpp.obj)
                                0xa8b (size before relaxing)
 .debug_str     0x00004850      0x146 src/modules/systemlib/mixer/libmodules__systemlib__mixer.a(mixer.cpp.obj)
                                0x8d8 (size before relaxing)
 .debug_str     0x00004996       0x9e NuttX/apps/libapps.a(gnu_cxxinitialize.o)
                                0x237 (size before relaxing)
 .debug_str     0x00004a34       0x1a NuttX/nuttx/arch/arm/src/libarch.a(stm32_allocateheap.o)
                                0x27f (size before relaxing)
 .debug_str     0x00004a4e       0x12 NuttX/nuttx/arch/arm/src/libarch.a(stm32_idle.o)
                                0x21a (size before relaxing)
 .debug_str     0x00004a60       0x93 NuttX/nuttx/arch/arm/src/libarch.a(up_blocktask.o)
                                0x66d (size before relaxing)
 .debug_str     0x00004af3       0x1b NuttX/nuttx/arch/arm/src/libarch.a(up_copyfullstate.o)
                                0x235 (size before relaxing)
 .debug_str     0x00004b0e       0x57 NuttX/nuttx/arch/arm/src/libarch.a(up_createstack.o)
                                0x56c (size before relaxing)
 .debug_str     0x00004b65       0x20 NuttX/nuttx/arch/arm/src/libarch.a(up_mdelay.o)
                                0x22a (size before relaxing)
 .debug_str     0x00004b85       0x2b NuttX/nuttx/arch/arm/src/libarch.a(up_udelay.o)
                                0x248 (size before relaxing)
 .debug_str     0x00004bb0       0x31 NuttX/nuttx/arch/arm/src/libarch.a(up_exit.o)
                                0x581 (size before relaxing)
 .debug_str     0x00004be1       0x2c NuttX/nuttx/arch/arm/src/libarch.a(up_initialize.o)
                                0x2e1 (size before relaxing)
 .debug_str     0x00004c0d       0x1a NuttX/nuttx/arch/arm/src/libarch.a(up_initialstate.o)
                                0x4fd (size before relaxing)
 .debug_str     0x00004c27       0x1d NuttX/nuttx/arch/arm/src/libarch.a(up_interruptcontext.o)
                                0x254 (size before relaxing)
 .debug_str     0x00004c44       0x1c NuttX/nuttx/arch/arm/src/libarch.a(up_releasepending.o)
                                0x58e (size before relaxing)
 .debug_str     0x00004c60       0x1e NuttX/nuttx/arch/arm/src/libarch.a(up_releasestack.o)
                                0x50c (size before relaxing)
 .debug_str     0x00004c7e       0x2a NuttX/nuttx/arch/arm/src/libarch.a(up_stackframe.o)
                                0x504 (size before relaxing)
 .debug_str     0x00004ca8       0x19 NuttX/nuttx/arch/arm/src/libarch.a(up_systemreset.o)
                                0x206 (size before relaxing)
 .debug_str     0x00004cc1       0x41 NuttX/nuttx/arch/arm/src/libarch.a(up_unblocktask.o)
                                0x638 (size before relaxing)
 .debug_str     0x00004d02       0x39 NuttX/nuttx/arch/arm/src/libarch.a(stm32_timerisr.o)
                                0x28d (size before relaxing)
 .debug_str     0x00004d3b       0x2a NuttX/nuttx/libc/libc.a(lib_crc32.o)
                                0x25d (size before relaxing)
 .debug_str     0x00004d65       0x13 NuttX/nuttx/libc/libc.a(sq_addlast.o)
                                0x245 (size before relaxing)
 .debug_str     0x00004d78       0x14 NuttX/nuttx/libc/libc.a(sq_addfirst.o)
                                0x247 (size before relaxing)
 .debug_str     0x00004d8c        0xf NuttX/nuttx/libc/libc.a(sq_rem.o)
                                0x24e (size before relaxing)
 .debug_str     0x00004d9b       0x14 NuttX/nuttx/libc/libc.a(sq_remfirst.o)
                                0x242 (size before relaxing)
 .debug_str     0x00004daf       0x14 NuttX/nuttx/libc/libc.a(sq_remafter.o)
                                0x247 (size before relaxing)
 .debug_str     0x00004dc3       0x14 NuttX/nuttx/libc/libc.a(dq_addfirst.o)
                                0x24d (size before relaxing)
 .debug_str     0x00004dd7        0xf NuttX/nuttx/libc/libc.a(dq_rem.o)
                                0x24d (size before relaxing)
 .debug_str     0x00004de6       0x1c NuttX/nuttx/libc/libc.a(sem_setprotocol.o)
                                0x263 (size before relaxing)
 .debug_str     0x00004e02       0x13 NuttX/nuttx/libc/libc.a(lib_printf.o)
                                0x240 (size before relaxing)
 .debug_str     0x00004e15       0x4c NuttX/nuttx/libc/libc.a(lib_vsnprintf.o)
                                0x312 (size before relaxing)
 .debug_str     0x00004e61       0xee NuttX/nuttx/libc/libc.a(lib_libvsprintf.o)
                                0x3a9 (size before relaxing)
 .debug_str     0x00004f4f       0x3a NuttX/nuttx/libc/libc.a(lib_memoutstream.o)
                                0x2c8 (size before relaxing)
 .debug_str     0x00004f89       0x2d NuttX/nuttx/libc/libc.a(lib_nulloutstream.o)
                                0x27c (size before relaxing)
 .debug_str     0x00004fb6       0x80 NuttX/nuttx/libc/libc.a(lib_sscanf.o)
                                0x318 (size before relaxing)
 .debug_str     0x00005036       0x23 NuttX/nuttx/libc/libc.a(lib_libnoflush.o)
                                0x252 (size before relaxing)
 .debug_str     0x00005059       0x34 NuttX/nuttx/libc/libc.a(lib_strtol.o)
                                0x25b (size before relaxing)
 .debug_str     0x0000508d       0x33 NuttX/nuttx/libc/libc.a(lib_strtoul.o)
                                0x271 (size before relaxing)
 .debug_str     0x000050c0       0x1c NuttX/nuttx/libc/libc.a(lib_checkbase.o)
                                0x237 (size before relaxing)
 .debug_str     0x000050dc       0x19 NuttX/nuttx/libc/libc.a(lib_isbasedigit.o)
                                0x22c (size before relaxing)
 .debug_str     0x000050f5       0x14 NuttX/nuttx/libc/libc.a(lib_memset.o)
                                0x217 (size before relaxing)
 .debug_str     0x00005109       0x14 NuttX/nuttx/libc/libc.a(lib_memchr.o)
                                0x217 (size before relaxing)
 .debug_str     0x0000511d       0x15 NuttX/nuttx/libc/libc.a(lib_memmove.o)
                                0x224 (size before relaxing)
 .debug_str     0x00005132       0x17 NuttX/nuttx/libc/libc.a(lib_skipspace.o)
                                0x22a (size before relaxing)
 .debug_str     0x00005149       0x14 NuttX/nuttx/libc/libc.a(lib_strchr.o)
                                0x1fb (size before relaxing)
 .debug_str     0x0000515d       0x14 NuttX/nuttx/libc/libc.a(lib_strcmp.o)
                                0x202 (size before relaxing)
 .debug_str     0x00005171       0x1c NuttX/nuttx/libc/libc.a(lib_strcspn.o)
                                0x227 (size before relaxing)
 .debug_str     0x0000518d       0x14 NuttX/nuttx/libc/libc.a(lib_strlen.o)
                                0x217 (size before relaxing)
 .debug_str     0x000051a1       0x1c NuttX/nuttx/libc/libc.a(lib_strnlen.o)
                                0x220 (size before relaxing)
 .debug_str     0x000051bd       0x15 NuttX/nuttx/libc/libc.a(lib_strncpy.o)
                                0x21e (size before relaxing)
 .debug_str     0x000051d2      0x192 NuttX/nuttx/libxx/libcxx.a(libxx_cxapurevirtual.o)
                                0x205 (size before relaxing)
 .debug_str     0x00005364       0x3b NuttX/nuttx/libxx/libcxx.a(libxx_eabi_atexit.o)
                                0x364 (size before relaxing)
 .debug_str     0x0000539f       0x15 NuttX/nuttx/libxx/libcxx.a(libxx_cxa_atexit.o)
                                0x35a (size before relaxing)
 .debug_str     0x000053b4       0x11 NuttX/nuttx/libxx/libcxx.a(libxx_delete.o)
                                0x337 (size before relaxing)
 .debug_str     0x000053c5       0x12 NuttX/nuttx/libxx/libcxx.a(libxx_deletea.o)
                                0x33b (size before relaxing)
 .debug_str     0x000053d7       0x69 NuttX/nuttx/libxx/libcxx.a(libxx_new.o)
                                0x416 (size before relaxing)
 .debug_str     0x00005440        0xf NuttX/nuttx/libxx/libcxx.a(libxx_newa.o)
                                0x41a (size before relaxing)
 .debug_str     0x0000544f       0x1b NuttX/nuttx/drivers/libdrivers.a(syslog_initialize.o)
                                0x288 (size before relaxing)
 .debug_str     0x0000546a       0x4e NuttX/nuttx/drivers/libdrivers.a(syslog_consolechannel.o)
                                0x2b7 (size before relaxing)
 .debug_str     0x000054b8      0x189 NuttX/nuttx/drivers/libdrivers.a(syslog_device.o)
                                0x58c (size before relaxing)
 .debug_str     0x00005641       0x10 NuttX/nuttx/fs/libfs.a(fs_initialize.o)
                                0x225 (size before relaxing)
 .debug_str     0x00005651       0xc0 NuttX/nuttx/fs/libfs.a(fs_files.o)
                                0x495 (size before relaxing)
 .debug_str     0x00005711       0x17 NuttX/nuttx/fs/libfs.a(fs_inodeaddref.o)
                                0x344 (size before relaxing)
 .debug_str     0x00005728       0x23 NuttX/nuttx/fs/libfs.a(fs_inoderelease.o)
                                0x356 (size before relaxing)
 .debug_str     0x0000574b       0x2a NuttX/nuttx/fs/libfs.a(fs_filedetach.o)
                                0x3b8 (size before relaxing)
 .debug_str     0x00005775        0xf NuttX/nuttx/fs/libfs.a(fs_close.o)
                                0x234 (size before relaxing)
 .debug_str     0x00005784       0x1c NuttX/nuttx/fs/libfs.a(fs_dupfd2.o)
                                0x34b (size before relaxing)
 .debug_str     0x000057a0       0x12 NuttX/nuttx/fs/libfs.a(fs_getfilep.o)
                                0x381 (size before relaxing)
 .debug_str     0x000057b2       0x39 NuttX/nuttx/fs/libfs.a(fs_open.o)
                                0x3ed (size before relaxing)
 .debug_str     0x000057eb        0xf NuttX/nuttx/fs/libfs.a(fs_write.o)
                                0x354 (size before relaxing)
 .debug_str     0x000057fa       0x15 NuttX/nuttx/fs/libfs.a(fs_inodefind.o)
                                0x37f (size before relaxing)
 .debug_str     0x0000580f       0x15 NuttX/nuttx/fs/libfs.a(fs_inodefree.o)
                                0x32e (size before relaxing)
 .debug_str     0x00005824       0x1a NuttX/nuttx/mm/libmm.a(umm_initialize.o)
                                0x338 (size before relaxing)
 .debug_str     0x0000583e       0x13 NuttX/nuttx/mm/libmm.a(umm_sem.o)
                                0x343 (size before relaxing)
 .debug_str     0x00005851       0x1c NuttX/nuttx/mm/libmm.a(umm_free.o)
                                0x316 (size before relaxing)
 .debug_str     0x0000586d       0x24 NuttX/nuttx/mm/libmm.a(umm_mallinfo.o)
                                0x350 (size before relaxing)
 .debug_str     0x00005891       0x16 NuttX/nuttx/mm/libmm.a(umm_malloc.o)
                                0x31c (size before relaxing)
 .debug_str     0x000058a7       0x2e NuttX/nuttx/mm/libmm.a(mm_initialize.o)
                                0x36c (size before relaxing)
 .debug_str     0x000058d5       0x1c NuttX/nuttx/mm/libmm.a(mm_free.o)
                                0x34d (size before relaxing)
 .debug_str     0x000058f1       0x16 NuttX/nuttx/mm/libmm.a(mm_mallinfo.o)
                                0x371 (size before relaxing)
 .debug_str     0x00005907       0x17 NuttX/nuttx/sched/libsched.a(sched_getfiles.o)
                                0x532 (size before relaxing)
 .debug_str     0x0000591e       0x36 NuttX/nuttx/sched/libsched.a(sched_addreadytorun.o)
                                0x5f6 (size before relaxing)
 .debug_str     0x00005954       0x2f NuttX/nuttx/sched/libsched.a(sched_removereadytorun.o)
                                0x5ea (size before relaxing)
 .debug_str     0x00005983       0x1d NuttX/nuttx/sched/libsched.a(sched_addprioritized.o)
                                0x540 (size before relaxing)
 .debug_str     0x000059a0       0x2c NuttX/nuttx/sched/libsched.a(sched_mergepending.o)
                                0x5f5 (size before relaxing)
 .debug_str     0x000059cc       0x24 NuttX/nuttx/sched/libsched.a(sched_addblocked.o)
                                0x611 (size before relaxing)
 .debug_str     0x000059f0       0x1c NuttX/nuttx/sched/libsched.a(sched_removeblocked.o)
                                0x5f5 (size before relaxing)
 .debug_str     0x00005a0c       0x30 NuttX/nuttx/sched/libsched.a(sched_processtimer.o)
                                0x23d (size before relaxing)
 .debug_str     0x00005a3c       0x18 NuttX/nuttx/sched/libsched.a(sem_destroy.o)
                                0x251 (size before relaxing)
 .debug_str     0x00005a54       0x20 NuttX/nuttx/sched/libsched.a(task_exit.o)
                                0x616 (size before relaxing)
 .debug_str     0x00005a74       0x34 NuttX/nuttx/sched/libsched.a(task_terminate.o)
                                0x677 (size before relaxing)
 .debug_str     0x00005aa8       0x5c NuttX/nuttx/sched/libsched.a(wd_start.o)
                                0x3e9 (size before relaxing)
 .debug_str     0x00005b04       0x15 NuttX/nuttx/sched/libsched.a(sched_gettcb.o)
                                0x503 (size before relaxing)
 .debug_str     0x00005b19      0x20b src/drivers/stm32/libdrivers__stm32.a(drv_hrt.c.obj)
                                0x69e (size before relaxing)
 .debug_str     0x00005d24      0x27a src/drivers/stm32/libdrivers__stm32.a(drv_pwm_servo.c.obj)
                                0x563 (size before relaxing)
 .debug_str     0x00005f9e      0x303 src/drivers/stm32/libdrivers__stm32.a(drv_io_timer.c.obj)
                                0x86b (size before relaxing)
 .debug_str     0x000062a1      0x30a src/lib/rc/liblib__rc.a(st24.cpp.obj)
                                0x772 (size before relaxing)
 .debug_str     0x000065ab      0x13c src/lib/rc/liblib__rc.a(sumd.cpp.obj)
                                0x726 (size before relaxing)
 .debug_str     0x000066e7      0x24a src/lib/rc/liblib__rc.a(sbus.cpp.obj)
                                0x8d0 (size before relaxing)
 .debug_str     0x00006931      0x207 src/lib/rc/liblib__rc.a(dsm.cpp.obj)
                                0x8e4 (size before relaxing)
 .debug_str     0x00006b38       0x1f src/lib/rc/liblib__rc.a(common_rc.cpp.obj)
                                0x55d (size before relaxing)
 .debug_str     0x00006b57       0x14 NuttX/nuttx/libc/libc.a(sq_addafter.o)
                                0x257 (size before relaxing)
 .debug_str     0x00006b6b       0x13 NuttX/nuttx/libc/libc.a(dq_addlast.o)
                                0x24b (size before relaxing)
 .debug_str     0x00006b7e       0x19 NuttX/nuttx/libc/libc.a(lib_strdup.o)
                                0x22d (size before relaxing)
 .debug_str     0x00006b97       0x18 NuttX/nuttx/libc/libc.a(lib_tcgetattr.o)
                                0x28b (size before relaxing)
 .debug_str     0x00006baf       0x20 NuttX/nuttx/libc/libc.a(lib_tcsetattr.o)
                                0x293 (size before relaxing)
 .debug_str     0x00006bcf       0x1a NuttX/nuttx/fs/libfs.a(fs_ioctl.o)
                                0x34d (size before relaxing)
 .debug_str     0x00006be9       0x18 NuttX/nuttx/fs/libfs.a(fs_read.o)
                                0x343 (size before relaxing)
 .debug_str     0x00006c01       0x37 src/drivers/boards/px4io-v2/libdrivers__boards__px4io-v2.a(px4io_timer_config.c.obj)
                                0x416 (size before relaxing)

.debug_frame    0x00000000     0x3f58
 .debug_frame   0x00000000       0x38 NuttX/nuttx/arch/arm/src/libarch.a(stm32_start.o)
 .debug_frame   0x00000038       0x34 NuttX/nuttx/arch/arm/src/libarch.a(stm32_rcc.o)
 .debug_frame   0x0000006c       0x74 NuttX/nuttx/arch/arm/src/libarch.a(stm32_gpio.o)
 .debug_frame   0x000000e0       0x38 NuttX/nuttx/arch/arm/src/libarch.a(stm32_lowputc.o)
 .debug_frame   0x00000118      0x2c8 NuttX/nuttx/arch/arm/src/libarch.a(stm32_serial.o)
 .debug_frame   0x000003e0       0x28 NuttX/nuttx/arch/arm/src/libarch.a(up_modifyreg32.o)
 .debug_frame   0x00000408       0x8c NuttX/nuttx/arch/arm/src/libarch.a(stm32_irq.o)
 .debug_frame   0x00000494       0xd0 NuttX/nuttx/arch/arm/src/libarch.a(stm32_dma.o)
 .debug_frame   0x00000564       0x4c NuttX/nuttx/arch/arm/src/libarch.a(up_assert.o)
 .debug_frame   0x000005b0       0x30 NuttX/nuttx/arch/arm/src/libarch.a(up_doirq.o)
 .debug_frame   0x000005e0       0x28 NuttX/nuttx/arch/arm/src/libarch.a(up_hardfault.o)
 .debug_frame   0x00000608       0x28 NuttX/nuttx/arch/arm/src/libarch.a(up_svcall.o)
 .debug_frame   0x00000630       0x58 NuttX/nuttx/arch/arm/src/libarch.a(up_checkstack.o)
 .debug_frame   0x00000688       0x28 NuttX/nuttx/libc/libc.a(sem_init.o)
 .debug_frame   0x000006b0       0x28 NuttX/nuttx/libc/libc.a(lib_abort.o)
 .debug_frame   0x000006d8       0x20 NuttX/nuttx/libc/libc.a(lib_strcpy.o)
 .debug_frame   0x000006f8       0x54 NuttX/nuttx/libc/libc.a(lib_syslog.o)
 .debug_frame   0x0000074c       0x20 NuttX/nuttx/libc/libc.a(lib_setlogmask.o)
 .debug_frame   0x0000076c       0x20 NuttX/nuttx/libc/libc.a(lib_cfgetspeed.o)
 .debug_frame   0x0000078c       0x20 NuttX/nuttx/libc/libc.a(lib_cfsetspeed.o)
 .debug_frame   0x000007ac      0x174 NuttX/nuttx/drivers/libdrivers.a(serial.o)
 .debug_frame   0x00000920       0x60 NuttX/nuttx/drivers/libdrivers.a(serial_io.o)
 .debug_frame   0x00000980       0x30 NuttX/nuttx/drivers/libdrivers.a(vsyslog.o)
 .debug_frame   0x000009b0       0x3c NuttX/nuttx/drivers/libdrivers.a(syslog_stream.o)
 .debug_frame   0x000009ec       0x3c NuttX/nuttx/drivers/libdrivers.a(syslog_emergstream.o)
 .debug_frame   0x00000a28       0x34 NuttX/nuttx/drivers/libdrivers.a(syslog_putc.o)
 .debug_frame   0x00000a5c       0x20 NuttX/nuttx/drivers/libdrivers.a(syslog_force.o)
 .debug_frame   0x00000a7c       0x30 NuttX/nuttx/drivers/libdrivers.a(syslog_channel.o)
 .debug_frame   0x00000aac       0x30 NuttX/nuttx/fs/libfs.a(fs_registerdriver.o)
 .debug_frame   0x00000adc       0x54 NuttX/nuttx/fs/libfs.a(fs_inode.o)
 .debug_frame   0x00000b30       0x50 NuttX/nuttx/fs/libfs.a(fs_inodereserve.o)
 .debug_frame   0x00000b80       0x40 NuttX/nuttx/fs/libfs.a(fs_inodesearch.o)
 .debug_frame   0x00000bc0       0x20 NuttX/nuttx/mm/libmm.a(umm_zalloc.o)
 .debug_frame   0x00000be0       0x2c NuttX/nuttx/mm/libmm.a(mm_zalloc.o)
 .debug_frame   0x00000c0c       0x30 NuttX/nuttx/mm/libmm.a(mm_malloc.o)
 .debug_frame   0x00000c3c       0x78 NuttX/nuttx/mm/libmm.a(mm_sem.o)
 .debug_frame   0x00000cb4       0x2c NuttX/nuttx/mm/libmm.a(mm_addfreechunk.o)
 .debug_frame   0x00000ce0       0x20 NuttX/nuttx/mm/libmm.a(mm_size2ndx.o)
 .debug_frame   0x00000d00       0x28 NuttX/nuttx/sched/libsched.a(errno_getptr.o)
 .debug_frame   0x00000d28       0x28 NuttX/nuttx/sched/libsched.a(os_start.o)
 .debug_frame   0x00000d50       0x2c NuttX/nuttx/sched/libsched.a(os_bringup.o)
 .debug_frame   0x00000d7c       0x2c NuttX/nuttx/sched/libsched.a(irq_attach.o)
 .debug_frame   0x00000da8       0x20 NuttX/nuttx/sched/libsched.a(irq_dispatch.o)
 .debug_frame   0x00000dc8       0x28 NuttX/nuttx/sched/libsched.a(irq_unexpectedisr.o)
 .debug_frame   0x00000df0       0x3c NuttX/nuttx/sched/libsched.a(sched_garbage.o)
 .debug_frame   0x00000e2c       0x30 NuttX/nuttx/sched/libsched.a(sched_foreach.o)
 .debug_frame   0x00000e5c       0x20 NuttX/nuttx/sched/libsched.a(sched_idletask.o)
 .debug_frame   0x00000e7c       0x2c NuttX/nuttx/sched/libsched.a(sem_wait.o)
 .debug_frame   0x00000ea8       0x28 NuttX/nuttx/sched/libsched.a(sem_trywait.o)
 .debug_frame   0x00000ed0       0x28 NuttX/nuttx/sched/libsched.a(sem_post.o)
 .debug_frame   0x00000ef8       0x2c NuttX/nuttx/sched/libsched.a(sem_reset.o)
 .debug_frame   0x00000f24       0x6c NuttX/nuttx/sched/libsched.a(task_create.o)
 .debug_frame   0x00000f90       0x5c NuttX/nuttx/sched/libsched.a(task_setup.o)
 .debug_frame   0x00000fec       0x28 NuttX/nuttx/sched/libsched.a(task_activate.o)
 .debug_frame   0x00001014       0x28 NuttX/nuttx/sched/libsched.a(task_start.o)
 .debug_frame   0x0000103c       0x20 NuttX/nuttx/sched/libsched.a(task_getpid.o)
 .debug_frame   0x0000105c       0x28 NuttX/nuttx/sched/libsched.a(exit.o)
 .debug_frame   0x00001084       0x38 NuttX/nuttx/sched/libsched.a(group_create.o)
 .debug_frame   0x000010bc       0x28 NuttX/nuttx/sched/libsched.a(group_setupidlefiles.o)
 .debug_frame   0x000010e4       0x28 NuttX/nuttx/sched/libsched.a(group_setuptaskfiles.o)
 .debug_frame   0x0000110c       0x20 NuttX/nuttx/sched/libsched.a(irq_initialize.o)
 .debug_frame   0x0000112c       0x28 NuttX/nuttx/sched/libsched.a(sched_releasetcb.o)
 .debug_frame   0x00001154       0x28 NuttX/nuttx/sched/libsched.a(sched_lock.o)
 .debug_frame   0x0000117c       0x2c NuttX/nuttx/sched/libsched.a(sched_unlock.o)
 .debug_frame   0x000011a8       0x28 NuttX/nuttx/sched/libsched.a(task_exithook.o)
 .debug_frame   0x000011d0       0x2c NuttX/nuttx/sched/libsched.a(task_recover.o)
 .debug_frame   0x000011fc       0x2c NuttX/nuttx/sched/libsched.a(wd_recover.o)
 .debug_frame   0x00001228       0x2c NuttX/nuttx/sched/libsched.a(group_leave.o)
 .debug_frame   0x00001254       0x34 NuttX/nuttx/sched/libsched.a(sched_free.o)
 .debug_frame   0x00001288       0x20 NuttX/nuttx/sched/libsched.a(sem_recover.o)
 .debug_frame   0x000012a8       0x2c NuttX/nuttx/sched/libsched.a(wd_cancel.o)
 .debug_frame   0x000012d4       0x2c NuttX/nuttx/sched/libsched.a(wd_delete.o)
 .debug_frame   0x00001300       0x2c NuttX/nuttx/sched/libsched.a(wd_initialize.o)
 .debug_frame   0x0000132c       0x30 src/drivers/boards/px4io-v2/libdrivers__boards__px4io-v2.a(px4io_init.c.obj)
 .debug_frame   0x0000135c       0x84 src/modules/px4iofirmware/libmodules__px4iofirmware.a(px4io.c.obj)
 .debug_frame   0x000013e0       0x90 src/modules/px4iofirmware/libmodules__px4iofirmware.a(registers.c.obj)
 .debug_frame   0x00001470       0x6c src/modules/px4iofirmware/libmodules__px4iofirmware.a(safety.c.obj)
 .debug_frame   0x000014dc       0x94 src/modules/px4iofirmware/libmodules__px4iofirmware.a(serial.c.obj)
 .debug_frame   0x00001570      0x22c src/modules/px4iofirmware/libmodules__px4iofirmware.a(perf_counter.c.obj)
 .debug_frame   0x0000179c       0x50 src/modules/px4iofirmware/libmodules__px4iofirmware.a(pwm_limit.c.obj)
 .debug_frame   0x000017ec       0x48 src/modules/px4iofirmware/libmodules__px4iofirmware.a(adc.c.obj)
 .debug_frame   0x00001834       0x5c src/modules/px4iofirmware/libmodules__px4iofirmware.a(controls.c.obj)
 .debug_frame   0x00001890      0x108 src/modules/px4iofirmware/libmodules__px4iofirmware.a(mixer.cpp.obj)
 .debug_frame   0x00001998      0x194 src/modules/systemlib/mixer/libmodules__systemlib__mixer.a(mixer_group.cpp.obj)
 .debug_frame   0x00001b2c      0x100 src/modules/systemlib/mixer/libmodules__systemlib__mixer.a(mixer_helicopter.cpp.obj)
 .debug_frame   0x00001c2c      0x140 src/modules/systemlib/mixer/libmodules__systemlib__mixer.a(mixer_multirotor.cpp.obj)
 .debug_frame   0x00001d6c      0x194 src/modules/systemlib/mixer/libmodules__systemlib__mixer.a(mixer_simple.cpp.obj)
 .debug_frame   0x00001f00      0x188 src/modules/systemlib/mixer/libmodules__systemlib__mixer.a(mixer.cpp.obj)
 .debug_frame   0x00002088       0x30 NuttX/apps/libapps.a(gnu_cxxinitialize.o)
 .debug_frame   0x000020b8       0x20 NuttX/nuttx/arch/arm/src/libarch.a(stm32_allocateheap.o)
 .debug_frame   0x000020d8       0x20 NuttX/nuttx/arch/arm/src/libarch.a(stm32_idle.o)
 .debug_frame   0x000020f8       0x3c NuttX/nuttx/arch/arm/src/libarch.a(up_blocktask.o)
 .debug_frame   0x00002134       0x20 NuttX/nuttx/arch/arm/src/libarch.a(up_copyfullstate.o)
 .debug_frame   0x00002154       0x3c NuttX/nuttx/arch/arm/src/libarch.a(up_createstack.o)
 .debug_frame   0x00002190       0x28 NuttX/nuttx/arch/arm/src/libarch.a(up_mdelay.o)
 .debug_frame   0x000021b8       0x28 NuttX/nuttx/arch/arm/src/libarch.a(up_udelay.o)
 .debug_frame   0x000021e0       0x28 NuttX/nuttx/arch/arm/src/libarch.a(up_exit.o)
 .debug_frame   0x00002208       0x2c NuttX/nuttx/arch/arm/src/libarch.a(up_initialize.o)
 .debug_frame   0x00002234       0x28 NuttX/nuttx/arch/arm/src/libarch.a(up_initialstate.o)
 .debug_frame   0x0000225c       0x20 NuttX/nuttx/arch/arm/src/libarch.a(up_interruptcontext.o)
 .debug_frame   0x0000227c       0x38 NuttX/nuttx/arch/arm/src/libarch.a(up_releasepending.o)
 .debug_frame   0x000022b4       0x28 NuttX/nuttx/arch/arm/src/libarch.a(up_releasestack.o)
 .debug_frame   0x000022dc       0x20 NuttX/nuttx/arch/arm/src/libarch.a(up_stackframe.o)
 .debug_frame   0x000022fc       0x20 NuttX/nuttx/arch/arm/src/libarch.a(up_systemreset.o)
 .debug_frame   0x0000231c       0x38 NuttX/nuttx/arch/arm/src/libarch.a(up_unblocktask.o)
 .debug_frame   0x00002354       0x44 NuttX/nuttx/arch/arm/src/libarch.a(stm32_timerisr.o)
 .debug_frame   0x00002398       0x3c NuttX/nuttx/libc/libc.a(lib_crc32.o)
 .debug_frame   0x000023d4       0x20 NuttX/nuttx/libc/libc.a(sq_addlast.o)
 .debug_frame   0x000023f4       0x20 NuttX/nuttx/libc/libc.a(sq_addfirst.o)
 .debug_frame   0x00002414       0x20 NuttX/nuttx/libc/libc.a(sq_rem.o)
 .debug_frame   0x00002434       0x20 NuttX/nuttx/libc/libc.a(sq_remfirst.o)
 .debug_frame   0x00002454       0x20 NuttX/nuttx/libc/libc.a(sq_remafter.o)
 .debug_frame   0x00002474       0x20 NuttX/nuttx/libc/libc.a(dq_addfirst.o)
 .debug_frame   0x00002494       0x20 NuttX/nuttx/libc/libc.a(dq_rem.o)
 .debug_frame   0x000024b4       0x28 NuttX/nuttx/libc/libc.a(sem_setprotocol.o)
 .debug_frame   0x000024dc       0x40 NuttX/nuttx/libc/libc.a(lib_printf.o)
 .debug_frame   0x0000251c       0x30 NuttX/nuttx/libc/libc.a(lib_vsnprintf.o)
 .debug_frame   0x0000254c      0x148 NuttX/nuttx/libc/libc.a(lib_libvsprintf.o)
 .debug_frame   0x00002694       0x30 NuttX/nuttx/libc/libc.a(lib_memoutstream.o)
 .debug_frame   0x000026c4       0x30 NuttX/nuttx/libc/libc.a(lib_nulloutstream.o)
 .debug_frame   0x000026f4       0x7c NuttX/nuttx/libc/libc.a(lib_sscanf.o)
 .debug_frame   0x00002770       0x20 NuttX/nuttx/libc/libc.a(lib_libnoflush.o)
 .debug_frame   0x00002790       0x30 NuttX/nuttx/libc/libc.a(lib_strtol.o)
 .debug_frame   0x000027c0       0x30 NuttX/nuttx/libc/libc.a(lib_strtoul.o)
 .debug_frame   0x000027f0       0x2c NuttX/nuttx/libc/libc.a(lib_checkbase.o)
 .debug_frame   0x0000281c       0x20 NuttX/nuttx/libc/libc.a(lib_isbasedigit.o)
 .debug_frame   0x0000283c       0x20 NuttX/nuttx/libc/libc.a(lib_memset.o)
 .debug_frame   0x0000285c       0x28 NuttX/nuttx/libc/libc.a(lib_memchr.o)
 .debug_frame   0x00002884       0x28 NuttX/nuttx/libc/libc.a(lib_memmove.o)
 .debug_frame   0x000028ac       0x20 NuttX/nuttx/libc/libc.a(lib_skipspace.o)
 .debug_frame   0x000028cc       0x20 NuttX/nuttx/libc/libc.a(lib_strchr.o)
 .debug_frame   0x000028ec       0x20 NuttX/nuttx/libc/libc.a(lib_strcmp.o)
 .debug_frame   0x0000290c       0x30 NuttX/nuttx/libc/libc.a(lib_strcspn.o)
 .debug_frame   0x0000293c       0x20 NuttX/nuttx/libc/libc.a(lib_strlen.o)
 .debug_frame   0x0000295c       0x28 NuttX/nuttx/libc/libc.a(lib_strnlen.o)
 .debug_frame   0x00002984       0x28 NuttX/nuttx/libc/libc.a(lib_strncpy.o)
 .debug_frame   0x000029ac       0x28 NuttX/nuttx/libxx/libcxx.a(libxx_cxapurevirtual.o)
 .debug_frame   0x000029d4       0x20 NuttX/nuttx/libxx/libcxx.a(libxx_eabi_atexit.o)
 .debug_frame   0x000029f4       0x20 NuttX/nuttx/libxx/libcxx.a(libxx_cxa_atexit.o)
 .debug_frame   0x00002a14       0x20 NuttX/nuttx/libxx/libcxx.a(libxx_delete.o)
 .debug_frame   0x00002a34       0x20 NuttX/nuttx/libxx/libcxx.a(libxx_deletea.o)
 .debug_frame   0x00002a54       0x20 NuttX/nuttx/libxx/libcxx.a(libxx_new.o)
 .debug_frame   0x00002a74       0x20 NuttX/nuttx/libxx/libcxx.a(libxx_newa.o)
 .debug_frame   0x00002a94       0x20 NuttX/nuttx/drivers/libdrivers.a(syslog_initialize.o)
 .debug_frame   0x00002ab4       0x30 NuttX/nuttx/drivers/libdrivers.a(syslog_consolechannel.o)
 .debug_frame   0x00002ae4       0xbc NuttX/nuttx/drivers/libdrivers.a(syslog_device.o)
 .debug_frame   0x00002ba0       0x20 NuttX/nuttx/fs/libfs.a(fs_initialize.o)
 .debug_frame   0x00002bc0      0x10c NuttX/nuttx/fs/libfs.a(fs_files.o)
 .debug_frame   0x00002ccc       0x30 NuttX/nuttx/fs/libfs.a(fs_inodeaddref.o)
 .debug_frame   0x00002cfc       0x38 NuttX/nuttx/fs/libfs.a(fs_inoderelease.o)
 .debug_frame   0x00002d34       0x4c NuttX/nuttx/fs/libfs.a(fs_filedetach.o)
 .debug_frame   0x00002d80       0x28 NuttX/nuttx/fs/libfs.a(fs_close.o)
 .debug_frame   0x00002da8       0x38 NuttX/nuttx/fs/libfs.a(fs_dupfd2.o)
 .debug_frame   0x00002de0       0x28 NuttX/nuttx/fs/libfs.a(fs_getfilep.o)
 .debug_frame   0x00002e08       0x58 NuttX/nuttx/fs/libfs.a(fs_open.o)
 .debug_frame   0x00002e60       0x50 NuttX/nuttx/fs/libfs.a(fs_write.o)
 .debug_frame   0x00002eb0       0x2c NuttX/nuttx/fs/libfs.a(fs_inodefind.o)
 .debug_frame   0x00002edc       0x30 NuttX/nuttx/fs/libfs.a(fs_inodefree.o)
 .debug_frame   0x00002f0c       0x20 NuttX/nuttx/mm/libmm.a(umm_initialize.o)
 .debug_frame   0x00002f2c       0x30 NuttX/nuttx/mm/libmm.a(umm_sem.o)
 .debug_frame   0x00002f5c       0x20 NuttX/nuttx/mm/libmm.a(umm_free.o)
 .debug_frame   0x00002f7c       0x34 NuttX/nuttx/mm/libmm.a(umm_mallinfo.o)
 .debug_frame   0x00002fb0       0x20 NuttX/nuttx/mm/libmm.a(umm_malloc.o)
 .debug_frame   0x00002fd0       0x5c NuttX/nuttx/mm/libmm.a(mm_initialize.o)
 .debug_frame   0x0000302c       0x38 NuttX/nuttx/mm/libmm.a(mm_free.o)
 .debug_frame   0x00003064       0x34 NuttX/nuttx/mm/libmm.a(mm_mallinfo.o)
 .debug_frame   0x00003098       0x20 NuttX/nuttx/sched/libsched.a(sched_getfiles.o)
 .debug_frame   0x000030b8       0x28 NuttX/nuttx/sched/libsched.a(sched_addreadytorun.o)
 .debug_frame   0x000030e0       0x2c NuttX/nuttx/sched/libsched.a(sched_removereadytorun.o)
 .debug_frame   0x0000310c       0x28 NuttX/nuttx/sched/libsched.a(sched_addprioritized.o)
 .debug_frame   0x00003134       0x30 NuttX/nuttx/sched/libsched.a(sched_mergepending.o)
 .debug_frame   0x00003164       0x2c NuttX/nuttx/sched/libsched.a(sched_addblocked.o)
 .debug_frame   0x00003190       0x28 NuttX/nuttx/sched/libsched.a(sched_removeblocked.o)
 .debug_frame   0x000031b8       0x2c NuttX/nuttx/sched/libsched.a(sched_processtimer.o)
 .debug_frame   0x000031e4       0x28 NuttX/nuttx/sched/libsched.a(sem_destroy.o)
 .debug_frame   0x0000320c       0x2c NuttX/nuttx/sched/libsched.a(task_exit.o)
 .debug_frame   0x00003238       0x38 NuttX/nuttx/sched/libsched.a(task_terminate.o)
 .debug_frame   0x00003270       0x64 NuttX/nuttx/sched/libsched.a(wd_start.o)
 .debug_frame   0x000032d4       0x20 NuttX/nuttx/sched/libsched.a(sched_gettcb.o)
 .debug_frame   0x000032f4      0x20c src/drivers/stm32/libdrivers__stm32.a(drv_hrt.c.obj)
 .debug_frame   0x00003500       0xe4 src/drivers/stm32/libdrivers__stm32.a(drv_pwm_servo.c.obj)
 .debug_frame   0x000035e4      0x1ec src/drivers/stm32/libdrivers__stm32.a(drv_io_timer.c.obj)
 .debug_frame   0x000037d0       0x50 src/lib/rc/liblib__rc.a(st24.cpp.obj)
 .debug_frame   0x00003820       0x60 src/lib/rc/liblib__rc.a(sumd.cpp.obj)
 .debug_frame   0x00003880       0xfc src/lib/rc/liblib__rc.a(sbus.cpp.obj)
 .debug_frame   0x0000397c      0x128 src/lib/rc/liblib__rc.a(dsm.cpp.obj)
 .debug_frame   0x00003aa4       0x20 NuttX/nuttx/libc/libc.a(sq_addafter.o)
 .debug_frame   0x00003ac4       0x20 NuttX/nuttx/libc/libc.a(dq_addlast.o)
 .debug_frame   0x00003ae4       0x2c NuttX/nuttx/libc/libc.a(lib_strdup.o)
 .debug_frame   0x00003b10       0x20 NuttX/nuttx/libc/libc.a(lib_tcgetattr.o)
 .debug_frame   0x00003b30       0x20 NuttX/nuttx/libc/libc.a(lib_tcsetattr.o)
 .debug_frame   0x00003b50       0x50 NuttX/nuttx/fs/libfs.a(fs_ioctl.o)
 .debug_frame   0x00003ba0       0x50 NuttX/nuttx/fs/libfs.a(fs_read.o)
 .debug_frame   0x00003bf0       0x34 /home/rablsa/gcc-arm-none-eabi-5_4-2016q2/bin/../lib/gcc/arm-none-eabi/5.4.1/../../../../arm-none-eabi/lib/armv7-m/libm.a(lib_a-sf_cos.o)
 .debug_frame   0x00003c24       0x30 /home/rablsa/gcc-arm-none-eabi-5_4-2016q2/bin/../lib/gcc/arm-none-eabi/5.4.1/../../../../arm-none-eabi/lib/armv7-m/libm.a(lib_a-sf_floor.o)
 .debug_frame   0x00003c54       0x2c /home/rablsa/gcc-arm-none-eabi-5_4-2016q2/bin/../lib/gcc/arm-none-eabi/5.4.1/../../../../arm-none-eabi/lib/armv7-m/libm.a(lib_a-sf_fmax.o)
 .debug_frame   0x00003c80       0x2c /home/rablsa/gcc-arm-none-eabi-5_4-2016q2/bin/../lib/gcc/arm-none-eabi/5.4.1/../../../../arm-none-eabi/lib/armv7-m/libm.a(lib_a-sf_fmin.o)
 .debug_frame   0x00003cac       0x20 /home/rablsa/gcc-arm-none-eabi-5_4-2016q2/bin/../lib/gcc/arm-none-eabi/5.4.1/../../../../arm-none-eabi/lib/armv7-m/libm.a(lib_a-sf_fpclassify.o)
 .debug_frame   0x00003ccc       0x34 /home/rablsa/gcc-arm-none-eabi-5_4-2016q2/bin/../lib/gcc/arm-none-eabi/5.4.1/../../../../arm-none-eabi/lib/armv7-m/libm.a(lib_a-sf_sin.o)
 .debug_frame   0x00003d00       0x3c /home/rablsa/gcc-arm-none-eabi-5_4-2016q2/bin/../lib/gcc/arm-none-eabi/5.4.1/../../../../arm-none-eabi/lib/armv7-m/libm.a(lib_a-wf_sqrt.o)
 .debug_frame   0x00003d3c       0x48 /home/rablsa/gcc-arm-none-eabi-5_4-2016q2/bin/../lib/gcc/arm-none-eabi/5.4.1/../../../../arm-none-eabi/lib/armv7-m/libm.a(lib_a-ef_rem_pio2.o)
 .debug_frame   0x00003d84       0x2c /home/rablsa/gcc-arm-none-eabi-5_4-2016q2/bin/../lib/gcc/arm-none-eabi/5.4.1/../../../../arm-none-eabi/lib/armv7-m/libm.a(lib_a-ef_sqrt.o)
 .debug_frame   0x00003db0       0x34 /home/rablsa/gcc-arm-none-eabi-5_4-2016q2/bin/../lib/gcc/arm-none-eabi/5.4.1/../../../../arm-none-eabi/lib/armv7-m/libm.a(lib_a-kf_cos.o)
 .debug_frame   0x00003de4       0x50 /home/rablsa/gcc-arm-none-eabi-5_4-2016q2/bin/../lib/gcc/arm-none-eabi/5.4.1/../../../../arm-none-eabi/lib/armv7-m/libm.a(lib_a-kf_rem_pio2.o)
 .debug_frame   0x00003e34       0x34 /home/rablsa/gcc-arm-none-eabi-5_4-2016q2/bin/../lib/gcc/arm-none-eabi/5.4.1/../../../../arm-none-eabi/lib/armv7-m/libm.a(lib_a-kf_sin.o)
 .debug_frame   0x00003e68       0x20 /home/rablsa/gcc-arm-none-eabi-5_4-2016q2/bin/../lib/gcc/arm-none-eabi/5.4.1/../../../../arm-none-eabi/lib/armv7-m/libm.a(lib_a-s_matherr.o)
 .debug_frame   0x00003e88       0x20 /home/rablsa/gcc-arm-none-eabi-5_4-2016q2/bin/../lib/gcc/arm-none-eabi/5.4.1/../../../../arm-none-eabi/lib/armv7-m/libm.a(lib_a-sf_fabs.o)
 .debug_frame   0x00003ea8       0x2c /home/rablsa/gcc-arm-none-eabi-5_4-2016q2/bin/../lib/gcc/arm-none-eabi/5.4.1/../../../../arm-none-eabi/lib/armv7-m/libm.a(lib_a-sf_scalbn.o)
 .debug_frame   0x00003ed4       0x20 /home/rablsa/gcc-arm-none-eabi-5_4-2016q2/bin/../lib/gcc/arm-none-eabi/5.4.1/../../../../arm-none-eabi/lib/armv7-m/libm.a(lib_a-sf_copysign.o)
 .debug_frame   0x00003ef4       0x2c /home/rablsa/gcc-arm-none-eabi-5_4-2016q2/bin/../lib/gcc/arm-none-eabi/5.4.1/armv7-m/libgcc.a(_aeabi_uldivmod.o)
 .debug_frame   0x00003f20       0x38 /home/rablsa/gcc-arm-none-eabi-5_4-2016q2/bin/../lib/gcc/arm-none-eabi/5.4.1/armv7-m/libgcc.a(_udivmoddi4.o)
